; Listing generated by Microsoft (R) Optimizing Compiler Version 19.28.29337.0 

	TITLE	D:\C++PROGRAMUJU\Visual studio c++\DirectX app\Main.cpp
	.686P
	.XMM
	include listing.inc
	.model	flat

INCLUDELIB MSVCRTD
INCLUDELIB OLDNAMES

PUBLIC	_CLSID_Registrar
PUBLIC	_IID_IRegistrar
PUBLIC	_IID_IDocHostUIHandlerDispatch
PUBLIC	_IID_IAxWinHostWindow
PUBLIC	_IID_IAxWinHostWindowLic
PUBLIC	_IID_IAxWinAmbientDispatch
PUBLIC	_IID_IAxWinAmbientDispatchEx
PUBLIC	_IID_IInternalConnection
PUBLIC	_LIBID_ATLLib
PUBLIC	___pobjMapEntryFirst
PUBLIC	___pobjMapEntryLast
PUBLIC	?_pPerfRegFunc@ATL@@3P6AJPAUHINSTANCE__@@@ZA	; ATL::_pPerfRegFunc
PUBLIC	?_pPerfUnRegFunc@ATL@@3P6AJXZA			; ATL::_pPerfUnRegFunc
PUBLIC	?_AtlRegisterPerUser@ATL@@3_NA			; ATL::_AtlRegisterPerUser
PUBLIC	?_pAtlModule@ATL@@3PAVCAtlModule@1@A		; ATL::_pAtlModule
PUBLIC	?_pModule@ATL@@3PAVCComModule@1@A		; ATL::_pModule
PUBLIC	?_pAtlAutoThreadModule@ATL@@3PAUIAtlAutoThreadModule@1@A ; ATL::_pAtlAutoThreadModule
PUBLIC	?chDirSep@ATL@@3_WB				; ATL::chDirSep
PUBLIC	?chRightBracket@ATL@@3_WB			; ATL::chRightBracket
PUBLIC	?chLeftBracket@ATL@@3_WB			; ATL::chLeftBracket
PUBLIC	?chQuote@ATL@@3_WB				; ATL::chQuote
PUBLIC	?chEquals@ATL@@3_WB				; ATL::chEquals
PUBLIC	?szStringVal@ATL@@3QB_WB			; ATL::szStringVal
PUBLIC	??_C@_13HADIAKP@?$AAS@				; `string'
PUBLIC	?multiszStringVal@ATL@@3QB_WB			; ATL::multiszStringVal
PUBLIC	??_C@_13LHMFKAAD@?$AAM@				; `string'
PUBLIC	?szDwordVal@ATL@@3QB_WB				; ATL::szDwordVal
PUBLIC	??_C@_13MKMNOPIJ@?$AAD@				; `string'
PUBLIC	?szBinaryVal@ATL@@3QB_WB			; ATL::szBinaryVal
PUBLIC	??_C@_13OPKGLAFF@?$AAB@				; `string'
PUBLIC	?szValToken@ATL@@3QB_WB				; ATL::szValToken
PUBLIC	??_C@_17LLMMEOJD@?$AAV?$AAa?$AAl@		; `string'
PUBLIC	?szForceRemove@ATL@@3QB_WB			; ATL::szForceRemove
PUBLIC	??_C@_1BI@JFAIJMHL@?$AAF?$AAo?$AAr?$AAc?$AAe?$AAR?$AAe?$AAm?$AAo?$AAv?$AAe@ ; `string'
PUBLIC	?szNoRemove@ATL@@3QB_WB				; ATL::szNoRemove
PUBLIC	??_C@_1BC@GCKHIPE@?$AAN?$AAo?$AAR?$AAe?$AAm?$AAo?$AAv?$AAe@ ; `string'
PUBLIC	?szDelete@ATL@@3QB_WB				; ATL::szDelete
PUBLIC	??_C@_1O@JDLOHAN@?$AAD?$AAe?$AAl?$AAe?$AAt?$AAe@ ; `string'
PUBLIC	?ScaleDPI@COLORPICK@@2MA			; COLORPICK::ScaleDPI
PUBLIC	?AB@@3UD2D_POINT_2F@@A				; AB
PUBLIC	?AB2@@3UD2D_POINT_2F@@A				; AB2
PUBLIC	?speed@@3HA					; speed
PUBLIC	?max_speed@@3HA					; max_speed
PUBLIC	?dx@@3MA					; dx
PUBLIC	?dy@@3MA					; dy
PUBLIC	?_key@@3_NA					; _key
PUBLIC	?troj_col@@3UCollision_area@@A			; troj_col
PUBLIC	?rect_col@@3UCollision_area@@A			; rect_col
PUBLIC	?key_col@@3UCollision_area@@A			; key_col
PUBLIC	?m_BlackBrush@@3PAUID2D1SolidColorBrush@@A	; m_BlackBrush
PUBLIC	?m_GreenBrush@@3PAUID2D1SolidColorBrush@@A	; m_GreenBrush
;	COMDAT ?_pPerfRegFunc@ATL@@3P6AJPAUHINSTANCE__@@@ZA
_BSS	SEGMENT
?_pPerfRegFunc@ATL@@3P6AJPAUHINSTANCE__@@@ZA DD 01H DUP (?) ; ATL::_pPerfRegFunc
_BSS	ENDS
;	COMDAT ?_pPerfUnRegFunc@ATL@@3P6AJXZA
_BSS	SEGMENT
?_pPerfUnRegFunc@ATL@@3P6AJXZA DD 01H DUP (?)		; ATL::_pPerfUnRegFunc
_BSS	ENDS
;	COMDAT ?_AtlRegisterPerUser@ATL@@3_NA
_BSS	SEGMENT
?_AtlRegisterPerUser@ATL@@3_NA DB 01H DUP (?)		; ATL::_AtlRegisterPerUser
_BSS	ENDS
;	COMDAT ?_pAtlModule@ATL@@3PAVCAtlModule@1@A
_BSS	SEGMENT
?_pAtlModule@ATL@@3PAVCAtlModule@1@A DD 01H DUP (?)	; ATL::_pAtlModule
_BSS	ENDS
;	COMDAT ?_pModule@ATL@@3PAVCComModule@1@A
_BSS	SEGMENT
?_pModule@ATL@@3PAVCComModule@1@A DD 01H DUP (?)	; ATL::_pModule
_BSS	ENDS
;	COMDAT ?_pAtlAutoThreadModule@ATL@@3PAUIAtlAutoThreadModule@1@A
_BSS	SEGMENT
?_pAtlAutoThreadModule@ATL@@3PAUIAtlAutoThreadModule@1@A DD 01H DUP (?) ; ATL::_pAtlAutoThreadModule
_BSS	ENDS
_BSS	SEGMENT
?AB@@3UD2D_POINT_2F@@A DQ 01H DUP (?)			; AB
?AB2@@3UD2D_POINT_2F@@A DQ 01H DUP (?)			; AB2
?troj_col@@3UCollision_area@@A DB 010H DUP (?)		; troj_col
?rect_col@@3UCollision_area@@A DB 010H DUP (?)		; rect_col
?key_col@@3UCollision_area@@A DB 010H DUP (?)		; key_col
?m_BlackBrush@@3PAUID2D1SolidColorBrush@@A DD 01H DUP (?) ; m_BlackBrush
?m_GreenBrush@@3PAUID2D1SolidColorBrush@@A DD 01H DUP (?) ; m_GreenBrush
_BSS	ENDS
msvcjmc	SEGMENT
__7242C389_ctype@h DB 01H
__90A1F774_basetsd@h DB 01H
__367CC694_corecrt_memcpy_s@h DB 01H
__35D7DDB3_corecrt_memory@h DB 01H
__DC9673E3_corecrt_wstring@h DB 01H
__A29A7DFB_string@h DB 01H
__3C23D660_guiddef@h DB 01H
__AF541008_winnt@h DB 01H
__0D001789_processthreadsapi@h DB 01H
__F972325D_memoryapi@h DB 01H
__76CD430D_winerror@h DB 01H
__737D49DB_winbase@h DB 01H
__1B9502AC_winuser@h DB 01H
__376EBCA0_winioctl@h DB 01H
__24E9E95F_stdlib@h DB 01H
__2CCBBE23_propidl@h DB 01H
__AD360DAF_oleauto@h DB 01H
__0396F1A5_stralign@h DB 01H
__B0C4CEA9_malloc@h DB 01H
__F66CEB67_corecrt_stdio_config@h DB 01H
__5467428D_corecrt_wconio@h DB 01H
__4442441F_corecrt_wio@h DB 01H
__101834BA_corecrt_wstdio@h DB 01H
__45F4AF76_corecrt_wtime@h DB 01H
__186FF47F_stat@h DB 01H
__534C724A_wchar@h DB 01H
__09340588_corecrt_math@h DB 01H
__F3BB7801_dcommon@h DB 01H
__FA3A9F83_d3d10@h DB 01H
__A42BBD61_d2d1helper@h DB 01H
__433C12BC_d2d1@h DB 01H
__94107041_dwrite@h DB 01H
__15F97165_intsafe@h DB 01H
__2FFF9A72_vcruntime_new@h DB 01H
__C92AF437_cstdlib DB 01H
__EA052A26_cmath DB 01H
__AD6A91B7_stdio@h DB 01H
__53AB788E_type_traits DB 01H
__37A42F42_xutility DB 01H
__7D20BDF6_vcruntime_exception@h DB 01H
__2EDB6A35_exception DB 01H
__A7626682_limits DB 01H
__94B2127F_xmemory DB 01H
__E06194E3_xstring DB 01H
__A7955068_stdexcept DB 01H
__E20AD420_xcall_once@h DB 01H
__8AA3BE86_time@h DB 01H
__32B7F76F_xthreads@h DB 01H
__CC573A40_atomic DB 01H
__5D57C600_system_error DB 01H
__332CE83C_vcruntime_typeinfo@h DB 01H
__477BDC5B_typeinfo DB 01H
__1BCC6A0C_memory DB 01H
__37893D03_xfacet DB 01H
__58F23F93_xlocinfo DB 01H
__3F5FE0D2_xlocale DB 01H
__61174880_xiosbase DB 01H
__A1D886C5_xlocnum DB 01H
__C1118D8D_ios DB 01H
__B9D77FC5_fstream DB 01H
__6F1FEC90_string DB 01H
__E90981E3_figure_d2d1@h DB 01H
__9FAB02AC_trojuhelnik_d2d1@h DB 01H
__6A8A9493_Grid_d2d1@h DB 01H
__7E37EEE2_collision_d2d1@h DB 01H
__BFE14E61_Shlwapi@h DB 01H
__4C263367_tuple DB 01H
__50E47684_functional DB 01H
__62A468D7_tchar@h DB 01H
__E6E0639A_mbstring@h DB 01H
__3E27AA6F_atlalloc@h DB 01H
__2023EACD_atlconv@h DB 01H
__84D67D56_atltrace@h DB 01H
__B7C315CE_atlexcept@h DB 01H
__A1912DB2_atlchecked@h DB 01H
__30BD78D5_atlwinverapi@h DB 01H
__248C1FC3_atlcore@h DB 01H
__68AEF2DD_atlcomcli@h DB 01H
__3FC45F63_atltransactionmanager@h DB 01H
__8F84CEAC_statreg@h DB 01H
__E85C1562_atlbase@h DB 01H
__C41728E1_algorithm DB 01H
__A51590B7_colorpick@hpp DB 01H
__68D9E3CC_Main@cpp DB 01H
__EACF1662_vector DB 01H
__65CBA1A4_atlsimpcoll@h DB 01H
__FE2771BC_utility DB 01H
__8C31CCAC_sstream DB 01H
__4F9F0F2C_istream DB 01H
__2C4F3A16_ostream DB 01H
__A535E8D4_streambuf DB 01H
__6B8BB304_iosfwd DB 01H
__26089802_iterator DB 01H
__0938E6AE_xstddef DB 01H
__723C2028_atldef@h DB 01H
__B1DF93B2_unknwnbase@h DB 01H
__24D7E6E3_xatomic@h DB 01H
msvcjmc	ENDS
_DATA	SEGMENT
?ScaleDPI@COLORPICK@@2MA DD 042c00000r		; 96	; COLORPICK::ScaleDPI
?speed@@3HA DD	0aH					; speed
?max_speed@@3HA DD 0c8H					; max_speed
?dx@@3MA DD	042480000r			; 50	; dx
?dy@@3MA DD	042480000r			; 50	; dy
?_key@@3_NA DB	01H					; _key
_DATA	ENDS
;	COMDAT ??_C@_1O@JDLOHAN@?$AAD?$AAe?$AAl?$AAe?$AAt?$AAe@
CONST	SEGMENT
??_C@_1O@JDLOHAN@?$AAD?$AAe?$AAl?$AAe?$AAt?$AAe@ DB 'D', 00H, 'e', 00H, 'l'
	DB	00H, 'e', 00H, 't', 00H, 'e', 00H, 00H, 00H	; `string'
CONST	ENDS
;	COMDAT ?szDelete@ATL@@3QB_WB
CONST	SEGMENT
?szDelete@ATL@@3QB_WB DD FLAT:??_C@_1O@JDLOHAN@?$AAD?$AAe?$AAl?$AAe?$AAt?$AAe@ ; ATL::szDelete
CONST	ENDS
;	COMDAT ??_C@_1BC@GCKHIPE@?$AAN?$AAo?$AAR?$AAe?$AAm?$AAo?$AAv?$AAe@
CONST	SEGMENT
??_C@_1BC@GCKHIPE@?$AAN?$AAo?$AAR?$AAe?$AAm?$AAo?$AAv?$AAe@ DB 'N', 00H, 'o'
	DB	00H, 'R', 00H, 'e', 00H, 'm', 00H, 'o', 00H, 'v', 00H, 'e', 00H
	DB	00H, 00H					; `string'
CONST	ENDS
;	COMDAT ?szNoRemove@ATL@@3QB_WB
CONST	SEGMENT
?szNoRemove@ATL@@3QB_WB DD FLAT:??_C@_1BC@GCKHIPE@?$AAN?$AAo?$AAR?$AAe?$AAm?$AAo?$AAv?$AAe@ ; ATL::szNoRemove
CONST	ENDS
;	COMDAT ??_C@_1BI@JFAIJMHL@?$AAF?$AAo?$AAr?$AAc?$AAe?$AAR?$AAe?$AAm?$AAo?$AAv?$AAe@
CONST	SEGMENT
??_C@_1BI@JFAIJMHL@?$AAF?$AAo?$AAr?$AAc?$AAe?$AAR?$AAe?$AAm?$AAo?$AAv?$AAe@ DB 'F'
	DB	00H, 'o', 00H, 'r', 00H, 'c', 00H, 'e', 00H, 'R', 00H, 'e', 00H
	DB	'm', 00H, 'o', 00H, 'v', 00H, 'e', 00H, 00H, 00H ; `string'
CONST	ENDS
;	COMDAT ?szForceRemove@ATL@@3QB_WB
CONST	SEGMENT
?szForceRemove@ATL@@3QB_WB DD FLAT:??_C@_1BI@JFAIJMHL@?$AAF?$AAo?$AAr?$AAc?$AAe?$AAR?$AAe?$AAm?$AAo?$AAv?$AAe@ ; ATL::szForceRemove
CONST	ENDS
;	COMDAT ??_C@_17LLMMEOJD@?$AAV?$AAa?$AAl@
CONST	SEGMENT
??_C@_17LLMMEOJD@?$AAV?$AAa?$AAl@ DB 'V', 00H, 'a', 00H, 'l', 00H, 00H, 00H ; `string'
CONST	ENDS
;	COMDAT ?szValToken@ATL@@3QB_WB
CONST	SEGMENT
?szValToken@ATL@@3QB_WB DD FLAT:??_C@_17LLMMEOJD@?$AAV?$AAa?$AAl@ ; ATL::szValToken
CONST	ENDS
;	COMDAT ??_C@_13OPKGLAFF@?$AAB@
CONST	SEGMENT
??_C@_13OPKGLAFF@?$AAB@ DB 'B', 00H, 00H, 00H		; `string'
CONST	ENDS
;	COMDAT ?szBinaryVal@ATL@@3QB_WB
CONST	SEGMENT
?szBinaryVal@ATL@@3QB_WB DD FLAT:??_C@_13OPKGLAFF@?$AAB@ ; ATL::szBinaryVal
CONST	ENDS
;	COMDAT ??_C@_13MKMNOPIJ@?$AAD@
CONST	SEGMENT
??_C@_13MKMNOPIJ@?$AAD@ DB 'D', 00H, 00H, 00H		; `string'
CONST	ENDS
;	COMDAT ?szDwordVal@ATL@@3QB_WB
CONST	SEGMENT
?szDwordVal@ATL@@3QB_WB DD FLAT:??_C@_13MKMNOPIJ@?$AAD@	; ATL::szDwordVal
CONST	ENDS
;	COMDAT ??_C@_13LHMFKAAD@?$AAM@
CONST	SEGMENT
??_C@_13LHMFKAAD@?$AAM@ DB 'M', 00H, 00H, 00H		; `string'
CONST	ENDS
;	COMDAT ?multiszStringVal@ATL@@3QB_WB
CONST	SEGMENT
?multiszStringVal@ATL@@3QB_WB DD FLAT:??_C@_13LHMFKAAD@?$AAM@ ; ATL::multiszStringVal
CONST	ENDS
;	COMDAT ??_C@_13HADIAKP@?$AAS@
CONST	SEGMENT
??_C@_13HADIAKP@?$AAS@ DB 'S', 00H, 00H, 00H		; `string'
CONST	ENDS
;	COMDAT ?szStringVal@ATL@@3QB_WB
CONST	SEGMENT
?szStringVal@ATL@@3QB_WB DD FLAT:??_C@_13HADIAKP@?$AAS@	; ATL::szStringVal
CONST	ENDS
;	COMDAT ?chEquals@ATL@@3_WB
CONST	SEGMENT
?chEquals@ATL@@3_WB DW 03dH				; ATL::chEquals
CONST	ENDS
;	COMDAT ?chQuote@ATL@@3_WB
CONST	SEGMENT
?chQuote@ATL@@3_WB DW 027H				; ATL::chQuote
CONST	ENDS
;	COMDAT ?chLeftBracket@ATL@@3_WB
CONST	SEGMENT
?chLeftBracket@ATL@@3_WB DW 07bH			; ATL::chLeftBracket
CONST	ENDS
;	COMDAT ?chRightBracket@ATL@@3_WB
CONST	SEGMENT
?chRightBracket@ATL@@3_WB DW 07dH			; ATL::chRightBracket
CONST	ENDS
;	COMDAT ?chDirSep@ATL@@3_WB
CONST	SEGMENT
?chDirSep@ATL@@3_WB DW 05cH				; ATL::chDirSep
CONST	ENDS
;	COMDAT ___pobjMapEntryLast
ATL$__z	SEGMENT
___pobjMapEntryLast DD 00H
ATL$__z	ENDS
;	COMDAT ___pobjMapEntryFirst
ATL$__a	SEGMENT
___pobjMapEntryFirst DD 00H
ATL$__a	ENDS
;	COMDAT _LIBID_ATLLib
CONST	SEGMENT
_LIBID_ATLLib DD 044ec0535H
	DW	0400fH
	DW	011d0H
	DB	09dH
	DB	0cdH
	DB	00H
	DB	0a0H
	DB	0c9H
	DB	03H
	DB	091H
	DB	0d3H
CONST	ENDS
;	COMDAT _IID_IInternalConnection
CONST	SEGMENT
_IID_IInternalConnection DD 072ad0770H
	DW	06a9fH
	DW	011d1H
	DB	0bcH
	DB	0ecH
	DB	00H
	DB	060H
	DB	08H
	DB	08fH
	DB	044H
	DB	04eH
CONST	ENDS
;	COMDAT _IID_IAxWinAmbientDispatchEx
CONST	SEGMENT
_IID_IAxWinAmbientDispatchEx DD 0b2d0778bH
	DW	0ac99H
	DW	04c58H
	DB	0a5H
	DB	0c8H
	DB	0e7H
	DB	072H
	DB	04eH
	DB	053H
	DB	016H
	DB	0b5H
CONST	ENDS
;	COMDAT _IID_IAxWinAmbientDispatch
CONST	SEGMENT
_IID_IAxWinAmbientDispatch DD 0b6ea2051H
	DW	048aH
	DW	011d1H
	DB	082H
	DB	0b9H
	DB	00H
	DB	0c0H
	DB	04fH
	DB	0b9H
	DB	094H
	DB	02eH
CONST	ENDS
;	COMDAT _IID_IAxWinHostWindowLic
CONST	SEGMENT
_IID_IAxWinHostWindowLic DD 03935bda8H
	DW	04ed9H
	DW	0495cH
	DB	086H
	DB	050H
	DB	0e0H
	DB	01fH
	DB	0c1H
	DB	0e3H
	DB	08aH
	DB	04bH
CONST	ENDS
;	COMDAT _IID_IAxWinHostWindow
CONST	SEGMENT
_IID_IAxWinHostWindow DD 0b6ea2050H
	DW	048aH
	DW	011d1H
	DB	082H
	DB	0b9H
	DB	00H
	DB	0c0H
	DB	04fH
	DB	0b9H
	DB	094H
	DB	02eH
CONST	ENDS
;	COMDAT _IID_IDocHostUIHandlerDispatch
CONST	SEGMENT
_IID_IDocHostUIHandlerDispatch DD 0425b5af0H
	DW	065f1H
	DW	011d1H
	DB	096H
	DB	011H
	DB	00H
	DB	00H
	DB	0f8H
	DB	01eH
	DB	0dH
	DB	0dH
CONST	ENDS
;	COMDAT _IID_IRegistrar
CONST	SEGMENT
_IID_IRegistrar DD 044ec053bH
	DW	0400fH
	DW	011d0H
	DB	09dH
	DB	0cdH
	DB	00H
	DB	0a0H
	DB	0c9H
	DB	03H
	DB	091H
	DB	0d3H
CONST	ENDS
;	COMDAT _CLSID_Registrar
CONST	SEGMENT
_CLSID_Registrar DD 044ec053aH
	DW	0400fH
	DW	011d0H
	DB	09dH
	DB	0cdH
	DB	00H
	DB	0a0H
	DB	0c9H
	DB	03H
	DB	091H
	DB	0d3H
CONST	ENDS
PUBLIC	?__empty_global_delete@@YAXPAX@Z		; __empty_global_delete
PUBLIC	?__empty_global_delete@@YAXPAXI@Z		; __empty_global_delete
PUBLIC	_WinMain@16
PUBLIC	_HRESULT_FROM_WIN32
PUBLIC	?abs@@YAJJ@Z					; abs
PUBLIC	___local_stdio_printf_options
PUBLIC	__vswprintf_s_l
PUBLIC	_swprintf_s
PUBLIC	_ceilf
PUBLIC	_cosf
PUBLIC	_sinf
PUBLIC	?SetColor@ID2D1SolidColorBrush@@QAEXABU_D3DCOLORVALUE@@@Z ; ID2D1SolidColorBrush::SetColor
PUBLIC	?CreateSolidColorBrush@ID2D1RenderTarget@@QAEJABU_D3DCOLORVALUE@@PAPAUID2D1SolidColorBrush@@@Z ; ID2D1RenderTarget::CreateSolidColorBrush
PUBLIC	?CreateLinearGradientBrush@ID2D1RenderTarget@@QAEJABUD2D1_LINEAR_GRADIENT_BRUSH_PROPERTIES@@PAUID2D1GradientStopCollection@@PAPAUID2D1LinearGradientBrush@@@Z ; ID2D1RenderTarget::CreateLinearGradientBrush
PUBLIC	?DrawRectangle@ID2D1RenderTarget@@QAEXABUD2D_RECT_F@@PAUID2D1Brush@@MPAUID2D1StrokeStyle@@@Z ; ID2D1RenderTarget::DrawRectangle
PUBLIC	?FillRectangle@ID2D1RenderTarget@@QAEXABUD2D_RECT_F@@PAUID2D1Brush@@@Z ; ID2D1RenderTarget::FillRectangle
PUBLIC	?DrawRoundedRectangle@ID2D1RenderTarget@@QAEXABUD2D1_ROUNDED_RECT@@PAUID2D1Brush@@MPAUID2D1StrokeStyle@@@Z ; ID2D1RenderTarget::DrawRoundedRectangle
PUBLIC	?FillRoundedRectangle@ID2D1RenderTarget@@QAEXABUD2D1_ROUNDED_RECT@@PAUID2D1Brush@@@Z ; ID2D1RenderTarget::FillRoundedRectangle
PUBLIC	?SetTransform@ID2D1RenderTarget@@QAEXABUD2D_MATRIX_3X2_F@@@Z ; ID2D1RenderTarget::SetTransform
PUBLIC	?Clear@ID2D1RenderTarget@@QAEXABU_D3DCOLORVALUE@@@Z ; ID2D1RenderTarget::Clear
PUBLIC	?DrawTextW@ID2D1RenderTarget@@QAEXPB_WIPAUIDWriteTextFormat@@ABUD2D_RECT_F@@PAUID2D1Brush@@W4D2D1_DRAW_TEXT_OPTIONS@@W4DWRITE_MEASURING_MODE@@@Z ; ID2D1RenderTarget::DrawTextW
PUBLIC	?Resize@ID2D1HwndRenderTarget@@QAEJABUD2D_SIZE_U@@@Z ; ID2D1HwndRenderTarget::Resize
PUBLIC	?CreateHwndRenderTarget@ID2D1Factory@@QAEJABUD2D1_RENDER_TARGET_PROPERTIES@@ABUD2D1_HWND_RENDER_TARGET_PROPERTIES@@PAPAUID2D1HwndRenderTarget@@@Z ; ID2D1Factory::CreateHwndRenderTarget
PUBLIC	?Point2F@D2D1@@YA?AUD2D_POINT_2F@@MM@Z		; D2D1::Point2F
PUBLIC	??$Point2@M@D2D1@@YA?AUD2D_POINT_2F@@MM@Z	; D2D1::Point2<float>
PUBLIC	?SizeU@D2D1@@YA?AUD2D_SIZE_U@@II@Z		; D2D1::SizeU
PUBLIC	??$Size@I@D2D1@@YA?AUD2D_SIZE_U@@II@Z		; D2D1::Size<unsigned int>
PUBLIC	?RectF@D2D1@@YA?AUD2D_RECT_F@@MMMM@Z		; D2D1::RectF
PUBLIC	??$Rect@M@D2D1@@YA?AUD2D_RECT_F@@MMMM@Z		; D2D1::Rect<float>
PUBLIC	?LinearGradientBrushProperties@D2D1@@YA?AUD2D1_LINEAR_GRADIENT_BRUSH_PROPERTIES@@ABUD2D_POINT_2F@@0@Z ; D2D1::LinearGradientBrushProperties
PUBLIC	?PixelFormat@D2D1@@YA?AUD2D1_PIXEL_FORMAT@@W4DXGI_FORMAT@@W4D2D1_ALPHA_MODE@@@Z ; D2D1::PixelFormat
PUBLIC	?RenderTargetProperties@D2D1@@YA?AUD2D1_RENDER_TARGET_PROPERTIES@@W4D2D1_RENDER_TARGET_TYPE@@ABUD2D1_PIXEL_FORMAT@@MMW4D2D1_RENDER_TARGET_USAGE@@W4D2D1_FEATURE_LEVEL@@@Z ; D2D1::RenderTargetProperties
PUBLIC	?HwndRenderTargetProperties@D2D1@@YA?AUD2D1_HWND_RENDER_TARGET_PROPERTIES@@PAUHWND__@@UD2D_SIZE_U@@W4D2D1_PRESENT_OPTIONS@@@Z ; D2D1::HwndRenderTargetProperties
PUBLIC	??0ColorF@D2D1@@QAE@W4Enum@01@M@Z		; D2D1::ColorF::ColorF
PUBLIC	?Init@ColorF@D2D1@@AAEXIM@Z			; D2D1::ColorF::Init
PUBLIC	??0Matrix3x2F@D2D1@@QAE@XZ			; D2D1::Matrix3x2F::Matrix3x2F
PUBLIC	?Identity@Matrix3x2F@D2D1@@SA?AV12@XZ		; D2D1::Matrix3x2F::Identity
PUBLIC	?D2D1CreateFactory@@YAJW4D2D1_FACTORY_TYPE@@ABU_GUID@@PAPAX@Z ; D2D1CreateFactory
PUBLIC	??2@YAPAXIPAX@Z					; operator new
PUBLIC	?ceil@@YAMM@Z					; ceil
PUBLIC	?cos@@YAMM@Z					; cos
PUBLIC	?sin@@YAMM@Z					; sin
PUBLIC	??0exception@std@@QAE@QBDH@Z			; std::exception::exception
PUBLIC	??0exception@std@@QAE@ABV01@@Z			; std::exception::exception
PUBLIC	??1exception@std@@UAE@XZ			; std::exception::~exception
PUBLIC	?what@exception@std@@UBEPBDXZ			; std::exception::what
PUBLIC	??_Gexception@std@@UAEPAXI@Z			; std::exception::`scalar deleting destructor'
PUBLIC	??0bad_alloc@std@@AAE@QBD@Z			; std::bad_alloc::bad_alloc
PUBLIC	??1bad_alloc@std@@UAE@XZ			; std::bad_alloc::~bad_alloc
PUBLIC	??0bad_alloc@std@@QAE@ABV01@@Z			; std::bad_alloc::bad_alloc
PUBLIC	??_Gbad_alloc@std@@UAEPAXI@Z			; std::bad_alloc::`scalar deleting destructor'
PUBLIC	??0bad_array_new_length@std@@QAE@XZ		; std::bad_array_new_length::bad_array_new_length
PUBLIC	??1bad_array_new_length@std@@UAE@XZ		; std::bad_array_new_length::~bad_array_new_length
PUBLIC	??0bad_array_new_length@std@@QAE@ABV01@@Z	; std::bad_array_new_length::bad_array_new_length
PUBLIC	??_Gbad_array_new_length@std@@UAEPAXI@Z		; std::bad_array_new_length::`scalar deleting destructor'
PUBLIC	?_Throw_bad_array_new_length@std@@YAXXZ		; std::_Throw_bad_array_new_length
PUBLIC	?max@?$numeric_limits@H@std@@SAHXZ		; std::numeric_limits<int>::max
PUBLIC	?_Allocate@_Default_allocate_traits@std@@SAPAXI@Z ; std::_Default_allocate_traits::_Allocate
PUBLIC	?_Adjust_manually_vector_aligned@std@@YAXAAPAXAAI@Z ; std::_Adjust_manually_vector_aligned
PUBLIC	??$_Convert_size@I@std@@YAII@Z			; std::_Convert_size<unsigned int>
PUBLIC	??0_Container_proxy@std@@QAE@PAU_Container_base12@1@@Z ; std::_Container_proxy::_Container_proxy
PUBLIC	??0_Container_base12@std@@QAE@XZ		; std::_Container_base12::_Container_base12
PUBLIC	?_Orphan_all@_Container_base12@std@@QAEXXZ	; std::_Container_base12::_Orphan_all
PUBLIC	?_Swap_proxy_and_iterators@_Container_base12@std@@QAEXAAU12@@Z ; std::_Container_base12::_Swap_proxy_and_iterators
PUBLIC	?_Release@_Basic_container_proxy_ptr12@std@@QAEXXZ ; std::_Basic_container_proxy_ptr12::_Release
PUBLIC	??$addressof@U_Container_base12@std@@@std@@YAPAU_Container_base12@0@AAU10@@Z ; std::addressof<std::_Container_base12>
PUBLIC	??$_Construct_in_place@U_Container_proxy@std@@PAU_Container_base12@2@@std@@YAXAAU_Container_proxy@0@$$QAPAU_Container_base12@0@@Z ; std::_Construct_in_place<std::_Container_proxy,std::_Container_base12 *>
PUBLIC	?copy@?$_Char_traits@_WG@std@@SAPA_WQA_WQB_WI@Z	; std::_Char_traits<wchar_t,unsigned short>::copy
PUBLIC	?move@?$_Char_traits@_WG@std@@SAPA_WQA_WQB_WI@Z	; std::_Char_traits<wchar_t,unsigned short>::move
PUBLIC	?length@?$_WChar_traits@_W@std@@SAIPB_W@Z	; std::_WChar_traits<wchar_t>::length
PUBLIC	?assign@?$_WChar_traits@_W@std@@SAXAA_WAB_W@Z	; std::_WChar_traits<wchar_t>::assign
PUBLIC	?to_char_type@?$_WChar_traits@_W@std@@SA_WABG@Z	; std::_WChar_traits<wchar_t>::to_char_type
PUBLIC	?to_int_type@?$_WChar_traits@_W@std@@SAGAB_W@Z	; std::_WChar_traits<wchar_t>::to_int_type
PUBLIC	?eq_int_type@?$_WChar_traits@_W@std@@SA_NABG0@Z	; std::_WChar_traits<wchar_t>::eq_int_type
PUBLIC	?not_eof@?$_WChar_traits@_W@std@@SAGABG@Z	; std::_WChar_traits<wchar_t>::not_eof
PUBLIC	?eof@?$_WChar_traits@_W@std@@SAGXZ		; std::_WChar_traits<wchar_t>::eof
PUBLIC	?copy@?$_Char_traits@DH@std@@SAPADQADQBDI@Z	; std::_Char_traits<char,int>::copy
PUBLIC	?move@?$_Char_traits@DH@std@@SAPADQADQBDI@Z	; std::_Char_traits<char,int>::move
PUBLIC	?length@?$_Narrow_char_traits@DH@std@@SAIQBD@Z	; std::_Narrow_char_traits<char,int>::length
PUBLIC	?assign@?$_Narrow_char_traits@DH@std@@SAXAADABD@Z ; std::_Narrow_char_traits<char,int>::assign
PUBLIC	?eq@?$_Narrow_char_traits@DH@std@@SA_NABD0@Z	; std::_Narrow_char_traits<char,int>::eq
PUBLIC	?to_char_type@?$_Narrow_char_traits@DH@std@@SADABH@Z ; std::_Narrow_char_traits<char,int>::to_char_type
PUBLIC	?to_int_type@?$_Narrow_char_traits@DH@std@@SAHABD@Z ; std::_Narrow_char_traits<char,int>::to_int_type
PUBLIC	?eq_int_type@?$_Narrow_char_traits@DH@std@@SA_NABH0@Z ; std::_Narrow_char_traits<char,int>::eq_int_type
PUBLIC	?not_eof@?$_Narrow_char_traits@DH@std@@SAHABH@Z	; std::_Narrow_char_traits<char,int>::not_eof
PUBLIC	?eof@?$_Narrow_char_traits@DH@std@@SAHXZ	; std::_Narrow_char_traits<char,int>::eof
PUBLIC	?_Xlen_string@std@@YAXXZ			; std::_Xlen_string
PUBLIC	??0?$allocator@D@std@@QAE@XZ			; std::allocator<char>::allocator<char>
PUBLIC	?deallocate@?$allocator@D@std@@QAEXQADI@Z	; std::allocator<char>::deallocate
PUBLIC	?allocate@?$allocator@D@std@@QAEPADI@Z		; std::allocator<char>::allocate
PUBLIC	?max_size@?$_Default_allocator_traits@V?$allocator@D@std@@@std@@SAIABV?$allocator@D@2@@Z ; std::_Default_allocator_traits<std::allocator<char> >::max_size
PUBLIC	?select_on_container_copy_construction@?$_Default_allocator_traits@V?$allocator@D@std@@@std@@SA?AV?$allocator@D@2@ABV32@@Z ; std::_Default_allocator_traits<std::allocator<char> >::select_on_container_copy_construction
PUBLIC	??0?$_String_val@U?$_Simple_types@D@std@@@std@@QAE@XZ ; std::_String_val<std::_Simple_types<char> >::_String_val<std::_Simple_types<char> >
PUBLIC	?_Myptr@?$_String_val@U?$_Simple_types@D@std@@@std@@QAEPADXZ ; std::_String_val<std::_Simple_types<char> >::_Myptr
PUBLIC	?_Myptr@?$_String_val@U?$_Simple_types@D@std@@@std@@QBEPBDXZ ; std::_String_val<std::_Simple_types<char> >::_Myptr
PUBLIC	?_Large_string_engaged@?$_String_val@U?$_Simple_types@D@std@@@std@@QBE_NXZ ; std::_String_val<std::_Simple_types<char> >::_Large_string_engaged
PUBLIC	?_Check_offset@?$_String_val@U?$_Simple_types@D@std@@@std@@QBEXI@Z ; std::_String_val<std::_Simple_types<char> >::_Check_offset
PUBLIC	?_Xran@?$_String_val@U?$_Simple_types@D@std@@@std@@SAXXZ ; std::_String_val<std::_Simple_types<char> >::_Xran
PUBLIC	?_Clamp_suffix_size@?$_String_val@U?$_Simple_types@D@std@@@std@@QBEIII@Z ; std::_String_val<std::_Simple_types<char> >::_Clamp_suffix_size
PUBLIC	??0_Bxty@?$_String_val@U?$_Simple_types@D@std@@@std@@QAE@XZ ; std::_String_val<std::_Simple_types<char> >::_Bxty::_Bxty
PUBLIC	??1_Bxty@?$_String_val@U?$_Simple_types@D@std@@@std@@QAE@XZ ; std::_String_val<std::_Simple_types<char> >::_Bxty::~_Bxty
PUBLIC	??1?$_String_val@U?$_Simple_types@D@std@@@std@@QAE@XZ ; std::_String_val<std::_Simple_types<char> >::~_String_val<std::_Simple_types<char> >
PUBLIC	??0?$basic_string@DU?$char_traits@D@std@@V?$allocator@D@2@@std@@QAE@ABV01@@Z ; std::basic_string<char,std::char_traits<char>,std::allocator<char> >::basic_string<char,std::char_traits<char>,std::allocator<char> >
PUBLIC	??0?$basic_string@DU?$char_traits@D@std@@V?$allocator@D@2@@std@@QAE@XZ ; std::basic_string<char,std::char_traits<char>,std::allocator<char> >::basic_string<char,std::char_traits<char>,std::allocator<char> >
PUBLIC	?_Construct@?$basic_string@DU?$char_traits@D@std@@V?$allocator@D@2@@std@@QAEXQAD0Urandom_access_iterator_tag@2@@Z ; std::basic_string<char,std::char_traits<char>,std::allocator<char> >::_Construct
PUBLIC	??0?$basic_string@DU?$char_traits@D@std@@V?$allocator@D@2@@std@@QAE@$$QAV01@@Z ; std::basic_string<char,std::char_traits<char>,std::allocator<char> >::basic_string<char,std::char_traits<char>,std::allocator<char> >
PUBLIC	??0?$basic_string@DU?$char_traits@D@std@@V?$allocator@D@2@@std@@QAE@U_String_constructor_concat_tag@1@ABV01@QBDI2I@Z ; std::basic_string<char,std::char_traits<char>,std::allocator<char> >::basic_string<char,std::char_traits<char>,std::allocator<char> >
PUBLIC	??0?$basic_string@DU?$char_traits@D@std@@V?$allocator@D@2@@std@@QAE@U_String_constructor_concat_tag@1@AAV01@1@Z ; std::basic_string<char,std::char_traits<char>,std::allocator<char> >::basic_string<char,std::char_traits<char>,std::allocator<char> >
PUBLIC	?_Move_assign@?$basic_string@DU?$char_traits@D@std@@V?$allocator@D@2@@std@@AAEXAAV12@U_Equal_allocators@2@@Z ; std::basic_string<char,std::char_traits<char>,std::allocator<char> >::_Move_assign
PUBLIC	??4?$basic_string@DU?$char_traits@D@std@@V?$allocator@D@2@@std@@QAEAAV01@$$QAV01@@Z ; std::basic_string<char,std::char_traits<char>,std::allocator<char> >::operator=
PUBLIC	?_Memcpy_val_from@?$basic_string@DU?$char_traits@D@std@@V?$allocator@D@2@@std@@AAEXABV12@@Z ; std::basic_string<char,std::char_traits<char>,std::allocator<char> >::_Memcpy_val_from
PUBLIC	?_Take_contents@?$basic_string@DU?$char_traits@D@std@@V?$allocator@D@2@@std@@AAEXAAV12@U?$integral_constant@_N$00@2@@Z ; std::basic_string<char,std::char_traits<char>,std::allocator<char> >::_Take_contents
PUBLIC	?_Construct_lv_contents@?$basic_string@DU?$char_traits@D@std@@V?$allocator@D@2@@std@@AAEXABV12@@Z ; std::basic_string<char,std::char_traits<char>,std::allocator<char> >::_Construct_lv_contents
PUBLIC	??1?$basic_string@DU?$char_traits@D@std@@V?$allocator@D@2@@std@@QAE@XZ ; std::basic_string<char,std::char_traits<char>,std::allocator<char> >::~basic_string<char,std::char_traits<char>,std::allocator<char> >
PUBLIC	?_Copy_assign@?$basic_string@DU?$char_traits@D@std@@V?$allocator@D@2@@std@@AAEXABV12@U?$integral_constant@_N$0A@@2@@Z ; std::basic_string<char,std::char_traits<char>,std::allocator<char> >::_Copy_assign
PUBLIC	??4?$basic_string@DU?$char_traits@D@std@@V?$allocator@D@2@@std@@QAEAAV01@ABV01@@Z ; std::basic_string<char,std::char_traits<char>,std::allocator<char> >::operator=
PUBLIC	??Y?$basic_string@DU?$char_traits@D@std@@V?$allocator@D@2@@std@@QAEAAV01@D@Z ; std::basic_string<char,std::char_traits<char>,std::allocator<char> >::operator+=
PUBLIC	?append@?$basic_string@DU?$char_traits@D@std@@V?$allocator@D@2@@std@@QAEAAV12@QBDI@Z ; std::basic_string<char,std::char_traits<char>,std::allocator<char> >::append
PUBLIC	?append@?$basic_string@DU?$char_traits@D@std@@V?$allocator@D@2@@std@@QAEAAV12@QBD@Z ; std::basic_string<char,std::char_traits<char>,std::allocator<char> >::append
PUBLIC	?assign@?$basic_string@DU?$char_traits@D@std@@V?$allocator@D@2@@std@@QAEAAV12@QBDI@Z ; std::basic_string<char,std::char_traits<char>,std::allocator<char> >::assign
PUBLIC	?insert@?$basic_string@DU?$char_traits@D@std@@V?$allocator@D@2@@std@@QAEAAV12@IQBDI@Z ; std::basic_string<char,std::char_traits<char>,std::allocator<char> >::insert
PUBLIC	?insert@?$basic_string@DU?$char_traits@D@std@@V?$allocator@D@2@@std@@QAEAAV12@IQBD@Z ; std::basic_string<char,std::char_traits<char>,std::allocator<char> >::insert
PUBLIC	?erase@?$basic_string@DU?$char_traits@D@std@@V?$allocator@D@2@@std@@QAEAAV12@I@Z ; std::basic_string<char,std::char_traits<char>,std::allocator<char> >::erase
PUBLIC	?_Erase_noexcept@?$basic_string@DU?$char_traits@D@std@@V?$allocator@D@2@@std@@AAEAAV12@II@Z ; std::basic_string<char,std::char_traits<char>,std::allocator<char> >::_Erase_noexcept
PUBLIC	?erase@?$basic_string@DU?$char_traits@D@std@@V?$allocator@D@2@@std@@QAEAAV12@II@Z ; std::basic_string<char,std::char_traits<char>,std::allocator<char> >::erase
PUBLIC	?push_back@?$basic_string@DU?$char_traits@D@std@@V?$allocator@D@2@@std@@QAEXD@Z ; std::basic_string<char,std::char_traits<char>,std::allocator<char> >::push_back
PUBLIC	?front@?$basic_string@DU?$char_traits@D@std@@V?$allocator@D@2@@std@@QAEAADXZ ; std::basic_string<char,std::char_traits<char>,std::allocator<char> >::front
PUBLIC	?c_str@?$basic_string@DU?$char_traits@D@std@@V?$allocator@D@2@@std@@QBEPBDXZ ; std::basic_string<char,std::char_traits<char>,std::allocator<char> >::c_str
PUBLIC	?data@?$basic_string@DU?$char_traits@D@std@@V?$allocator@D@2@@std@@QBEPBDXZ ; std::basic_string<char,std::char_traits<char>,std::allocator<char> >::data
PUBLIC	?length@?$basic_string@DU?$char_traits@D@std@@V?$allocator@D@2@@std@@QBEIXZ ; std::basic_string<char,std::char_traits<char>,std::allocator<char> >::length
PUBLIC	?size@?$basic_string@DU?$char_traits@D@std@@V?$allocator@D@2@@std@@QBEIXZ ; std::basic_string<char,std::char_traits<char>,std::allocator<char> >::size
PUBLIC	?max_size@?$basic_string@DU?$char_traits@D@std@@V?$allocator@D@2@@std@@QBEIXZ ; std::basic_string<char,std::char_traits<char>,std::allocator<char> >::max_size
PUBLIC	?get_allocator@?$basic_string@DU?$char_traits@D@std@@V?$allocator@D@2@@std@@QBE?AV?$allocator@D@2@XZ ; std::basic_string<char,std::char_traits<char>,std::allocator<char> >::get_allocator
PUBLIC	?_Calculate_growth@?$basic_string@DU?$char_traits@D@std@@V?$allocator@D@2@@std@@CAIIII@Z ; std::basic_string<char,std::char_traits<char>,std::allocator<char> >::_Calculate_growth
PUBLIC	?_Calculate_growth@?$basic_string@DU?$char_traits@D@std@@V?$allocator@D@2@@std@@ABEII@Z ; std::basic_string<char,std::char_traits<char>,std::allocator<char> >::_Calculate_growth
PUBLIC	?_Eos@?$basic_string@DU?$char_traits@D@std@@V?$allocator@D@2@@std@@AAEXI@Z ; std::basic_string<char,std::char_traits<char>,std::allocator<char> >::_Eos
PUBLIC	?_Tidy_init@?$basic_string@DU?$char_traits@D@std@@V?$allocator@D@2@@std@@AAEXXZ ; std::basic_string<char,std::char_traits<char>,std::allocator<char> >::_Tidy_init
PUBLIC	?_Tidy_deallocate@?$basic_string@DU?$char_traits@D@std@@V?$allocator@D@2@@std@@AAEXXZ ; std::basic_string<char,std::char_traits<char>,std::allocator<char> >::_Tidy_deallocate
PUBLIC	?_Swap_proxy_and_iterators@?$basic_string@DU?$char_traits@D@std@@V?$allocator@D@2@@std@@AAEXAAV12@@Z ; std::basic_string<char,std::char_traits<char>,std::allocator<char> >::_Swap_proxy_and_iterators
PUBLIC	?_Getal@?$basic_string@DU?$char_traits@D@std@@V?$allocator@D@2@@std@@AAEAAV?$allocator@D@2@XZ ; std::basic_string<char,std::char_traits<char>,std::allocator<char> >::_Getal
PUBLIC	?_Getal@?$basic_string@DU?$char_traits@D@std@@V?$allocator@D@2@@std@@ABEABV?$allocator@D@2@XZ ; std::basic_string<char,std::char_traits<char>,std::allocator<char> >::_Getal
PUBLIC	?_Get_first@?$_Compressed_pair@V?$allocator@D@std@@V?$_String_val@U?$_Simple_types@D@std@@@2@$00@std@@QAEAAV?$allocator@D@2@XZ ; std::_Compressed_pair<std::allocator<char>,std::_String_val<std::_Simple_types<char> >,1>::_Get_first
PUBLIC	?_Get_first@?$_Compressed_pair@V?$allocator@D@std@@V?$_String_val@U?$_Simple_types@D@std@@@2@$00@std@@QBEABV?$allocator@D@2@XZ ; std::_Compressed_pair<std::allocator<char>,std::_String_val<std::_Simple_types<char> >,1>::_Get_first
PUBLIC	??1?$_Compressed_pair@V?$allocator@D@std@@V?$_String_val@U?$_Simple_types@D@std@@@2@$00@std@@QAE@XZ ; std::_Compressed_pair<std::allocator<char>,std::_String_val<std::_Simple_types<char> >,1>::~_Compressed_pair<std::allocator<char>,std::_String_val<std::_Simple_types<char> >,1>
PUBLIC	??0?$allocator@_W@std@@QAE@XZ			; std::allocator<wchar_t>::allocator<wchar_t>
PUBLIC	?deallocate@?$allocator@_W@std@@QAEXQA_WI@Z	; std::allocator<wchar_t>::deallocate
PUBLIC	?allocate@?$allocator@_W@std@@QAEPA_WI@Z	; std::allocator<wchar_t>::allocate
PUBLIC	?max_size@?$_Default_allocator_traits@V?$allocator@_W@std@@@std@@SAIABV?$allocator@_W@2@@Z ; std::_Default_allocator_traits<std::allocator<wchar_t> >::max_size
PUBLIC	??0?$_String_val@U?$_Simple_types@_W@std@@@std@@QAE@XZ ; std::_String_val<std::_Simple_types<wchar_t> >::_String_val<std::_Simple_types<wchar_t> >
PUBLIC	?_Myptr@?$_String_val@U?$_Simple_types@_W@std@@@std@@QAEPA_WXZ ; std::_String_val<std::_Simple_types<wchar_t> >::_Myptr
PUBLIC	?_Myptr@?$_String_val@U?$_Simple_types@_W@std@@@std@@QBEPB_WXZ ; std::_String_val<std::_Simple_types<wchar_t> >::_Myptr
PUBLIC	?_Large_string_engaged@?$_String_val@U?$_Simple_types@_W@std@@@std@@QBE_NXZ ; std::_String_val<std::_Simple_types<wchar_t> >::_Large_string_engaged
PUBLIC	?_Check_offset@?$_String_val@U?$_Simple_types@_W@std@@@std@@QBEXI@Z ; std::_String_val<std::_Simple_types<wchar_t> >::_Check_offset
PUBLIC	?_Xran@?$_String_val@U?$_Simple_types@_W@std@@@std@@SAXXZ ; std::_String_val<std::_Simple_types<wchar_t> >::_Xran
PUBLIC	??0_Bxty@?$_String_val@U?$_Simple_types@_W@std@@@std@@QAE@XZ ; std::_String_val<std::_Simple_types<wchar_t> >::_Bxty::_Bxty
PUBLIC	??1_Bxty@?$_String_val@U?$_Simple_types@_W@std@@@std@@QAE@XZ ; std::_String_val<std::_Simple_types<wchar_t> >::_Bxty::~_Bxty
PUBLIC	??1?$_String_val@U?$_Simple_types@_W@std@@@std@@QAE@XZ ; std::_String_val<std::_Simple_types<wchar_t> >::~_String_val<std::_Simple_types<wchar_t> >
PUBLIC	??0?$basic_string@_WU?$char_traits@_W@std@@V?$allocator@_W@2@@std@@QAE@QB_W@Z ; std::basic_string<wchar_t,std::char_traits<wchar_t>,std::allocator<wchar_t> >::basic_string<wchar_t,std::char_traits<wchar_t>,std::allocator<wchar_t> >
PUBLIC	?_Construct@?$basic_string@_WU?$char_traits@_W@std@@V?$allocator@_W@2@@std@@QAEXQA_W0Urandom_access_iterator_tag@2@@Z ; std::basic_string<wchar_t,std::char_traits<wchar_t>,std::allocator<wchar_t> >::_Construct
PUBLIC	??0?$basic_string@_WU?$char_traits@_W@std@@V?$allocator@_W@2@@std@@QAE@$$QAV01@@Z ; std::basic_string<wchar_t,std::char_traits<wchar_t>,std::allocator<wchar_t> >::basic_string<wchar_t,std::char_traits<wchar_t>,std::allocator<wchar_t> >
PUBLIC	??0?$basic_string@_WU?$char_traits@_W@std@@V?$allocator@_W@2@@std@@QAE@U_String_constructor_concat_tag@1@AAV01@1@Z ; std::basic_string<wchar_t,std::char_traits<wchar_t>,std::allocator<wchar_t> >::basic_string<wchar_t,std::char_traits<wchar_t>,std::allocator<wchar_t> >
PUBLIC	?_Memcpy_val_from@?$basic_string@_WU?$char_traits@_W@std@@V?$allocator@_W@2@@std@@AAEXABV12@@Z ; std::basic_string<wchar_t,std::char_traits<wchar_t>,std::allocator<wchar_t> >::_Memcpy_val_from
PUBLIC	?_Take_contents@?$basic_string@_WU?$char_traits@_W@std@@V?$allocator@_W@2@@std@@AAEXAAV12@U?$integral_constant@_N$00@2@@Z ; std::basic_string<wchar_t,std::char_traits<wchar_t>,std::allocator<wchar_t> >::_Take_contents
PUBLIC	??1?$basic_string@_WU?$char_traits@_W@std@@V?$allocator@_W@2@@std@@QAE@XZ ; std::basic_string<wchar_t,std::char_traits<wchar_t>,std::allocator<wchar_t> >::~basic_string<wchar_t,std::char_traits<wchar_t>,std::allocator<wchar_t> >
PUBLIC	?append@?$basic_string@_WU?$char_traits@_W@std@@V?$allocator@_W@2@@std@@QAEAAV12@QB_WI@Z ; std::basic_string<wchar_t,std::char_traits<wchar_t>,std::allocator<wchar_t> >::append
PUBLIC	?append@?$basic_string@_WU?$char_traits@_W@std@@V?$allocator@_W@2@@std@@QAEAAV12@QB_W@Z ; std::basic_string<wchar_t,std::char_traits<wchar_t>,std::allocator<wchar_t> >::append
PUBLIC	?assign@?$basic_string@_WU?$char_traits@_W@std@@V?$allocator@_W@2@@std@@QAEAAV12@QB_WI@Z ; std::basic_string<wchar_t,std::char_traits<wchar_t>,std::allocator<wchar_t> >::assign
PUBLIC	?assign@?$basic_string@_WU?$char_traits@_W@std@@V?$allocator@_W@2@@std@@QAEAAV12@QB_W@Z ; std::basic_string<wchar_t,std::char_traits<wchar_t>,std::allocator<wchar_t> >::assign
PUBLIC	?insert@?$basic_string@_WU?$char_traits@_W@std@@V?$allocator@_W@2@@std@@QAEAAV12@IQB_WI@Z ; std::basic_string<wchar_t,std::char_traits<wchar_t>,std::allocator<wchar_t> >::insert
PUBLIC	?insert@?$basic_string@_WU?$char_traits@_W@std@@V?$allocator@_W@2@@std@@QAEAAV12@IQB_W@Z ; std::basic_string<wchar_t,std::char_traits<wchar_t>,std::allocator<wchar_t> >::insert
PUBLIC	?c_str@?$basic_string@_WU?$char_traits@_W@std@@V?$allocator@_W@2@@std@@QBEPB_WXZ ; std::basic_string<wchar_t,std::char_traits<wchar_t>,std::allocator<wchar_t> >::c_str
PUBLIC	?data@?$basic_string@_WU?$char_traits@_W@std@@V?$allocator@_W@2@@std@@QBEPB_WXZ ; std::basic_string<wchar_t,std::char_traits<wchar_t>,std::allocator<wchar_t> >::data
PUBLIC	?size@?$basic_string@_WU?$char_traits@_W@std@@V?$allocator@_W@2@@std@@QBEIXZ ; std::basic_string<wchar_t,std::char_traits<wchar_t>,std::allocator<wchar_t> >::size
PUBLIC	?max_size@?$basic_string@_WU?$char_traits@_W@std@@V?$allocator@_W@2@@std@@QBEIXZ ; std::basic_string<wchar_t,std::char_traits<wchar_t>,std::allocator<wchar_t> >::max_size
PUBLIC	?_Calculate_growth@?$basic_string@_WU?$char_traits@_W@std@@V?$allocator@_W@2@@std@@CAIIII@Z ; std::basic_string<wchar_t,std::char_traits<wchar_t>,std::allocator<wchar_t> >::_Calculate_growth
PUBLIC	?_Calculate_growth@?$basic_string@_WU?$char_traits@_W@std@@V?$allocator@_W@2@@std@@ABEII@Z ; std::basic_string<wchar_t,std::char_traits<wchar_t>,std::allocator<wchar_t> >::_Calculate_growth
PUBLIC	?_Tidy_init@?$basic_string@_WU?$char_traits@_W@std@@V?$allocator@_W@2@@std@@AAEXXZ ; std::basic_string<wchar_t,std::char_traits<wchar_t>,std::allocator<wchar_t> >::_Tidy_init
PUBLIC	?_Tidy_deallocate@?$basic_string@_WU?$char_traits@_W@std@@V?$allocator@_W@2@@std@@AAEXXZ ; std::basic_string<wchar_t,std::char_traits<wchar_t>,std::allocator<wchar_t> >::_Tidy_deallocate
PUBLIC	?_Swap_proxy_and_iterators@?$basic_string@_WU?$char_traits@_W@std@@V?$allocator@_W@2@@std@@AAEXAAV12@@Z ; std::basic_string<wchar_t,std::char_traits<wchar_t>,std::allocator<wchar_t> >::_Swap_proxy_and_iterators
PUBLIC	?_Getal@?$basic_string@_WU?$char_traits@_W@std@@V?$allocator@_W@2@@std@@AAEAAV?$allocator@_W@2@XZ ; std::basic_string<wchar_t,std::char_traits<wchar_t>,std::allocator<wchar_t> >::_Getal
PUBLIC	?_Getal@?$basic_string@_WU?$char_traits@_W@std@@V?$allocator@_W@2@@std@@ABEABV?$allocator@_W@2@XZ ; std::basic_string<wchar_t,std::char_traits<wchar_t>,std::allocator<wchar_t> >::_Getal
PUBLIC	?_Get_first@?$_Compressed_pair@V?$allocator@_W@std@@V?$_String_val@U?$_Simple_types@_W@std@@@2@$00@std@@QAEAAV?$allocator@_W@2@XZ ; std::_Compressed_pair<std::allocator<wchar_t>,std::_String_val<std::_Simple_types<wchar_t> >,1>::_Get_first
PUBLIC	?_Get_first@?$_Compressed_pair@V?$allocator@_W@std@@V?$_String_val@U?$_Simple_types@_W@std@@@2@$00@std@@QBEABV?$allocator@_W@2@XZ ; std::_Compressed_pair<std::allocator<wchar_t>,std::_String_val<std::_Simple_types<wchar_t> >,1>::_Get_first
PUBLIC	??1?$_Compressed_pair@V?$allocator@_W@std@@V?$_String_val@U?$_Simple_types@_W@std@@@2@$00@std@@QAE@XZ ; std::_Compressed_pair<std::allocator<wchar_t>,std::_String_val<std::_Simple_types<wchar_t> >,1>::~_Compressed_pair<std::allocator<wchar_t>,std::_String_val<std::_Simple_types<wchar_t> >,1>
PUBLIC	??0bad_cast@std@@QAE@XZ				; std::bad_cast::bad_cast
PUBLIC	??1bad_cast@std@@UAE@XZ				; std::bad_cast::~bad_cast
PUBLIC	??0bad_cast@std@@QAE@ABV01@@Z			; std::bad_cast::bad_cast
PUBLIC	??_Gbad_cast@std@@UAEPAXI@Z			; std::bad_cast::`scalar deleting destructor'
PUBLIC	?_Throw_bad_cast@std@@YAXXZ			; std::_Throw_bad_cast
PUBLIC	??1locale@std@@QAE@XZ				; std::locale::~locale
PUBLIC	?_Getfacet@locale@std@@QBEPBVfacet@12@I@Z	; std::locale::_Getfacet
PUBLIC	??$_Adl_verify_range@PA_WPA_W@std@@YAXABQA_W0@Z	; std::_Adl_verify_range<wchar_t *,wchar_t *>
PUBLIC	??$_Adl_verify_range@PADPAD@std@@YAXABQAD0@Z	; std::_Adl_verify_range<char *,char *>
PUBLIC	??$use_facet@V?$ctype@D@std@@@std@@YAABV?$ctype@D@0@ABVlocale@0@@Z ; std::use_facet<std::ctype<char> >
PUBLIC	??0?$fpos@U_Mbstatet@@@std@@QAE@_J@Z		; std::fpos<_Mbstatet>::fpos<_Mbstatet>
PUBLIC	??0?$fpos@U_Mbstatet@@@std@@QAE@U_Mbstatet@@_J@Z ; std::fpos<_Mbstatet>::fpos<_Mbstatet>
PUBLIC	?state@?$fpos@U_Mbstatet@@@std@@QBE?AU_Mbstatet@@XZ ; std::fpos<_Mbstatet>::state
PUBLIC	??B?$fpos@U_Mbstatet@@@std@@QBE_JXZ		; std::fpos<_Mbstatet>::operator __int64
PUBLIC	??$_Fgetc@D@std@@YA_NAADPAU_iobuf@@@Z		; std::_Fgetc<char>
PUBLIC	??$_Fgetc@_W@std@@YA_NAA_WPAU_iobuf@@@Z		; std::_Fgetc<wchar_t>
PUBLIC	??$_Fputc@D@std@@YA_NDPAU_iobuf@@@Z		; std::_Fputc<char>
PUBLIC	??$_Fputc@_W@std@@YA_N_WPAU_iobuf@@@Z		; std::_Fputc<wchar_t>
PUBLIC	??$_Ungetc@D@std@@YA_NABDPAU_iobuf@@@Z		; std::_Ungetc<char>
PUBLIC	??$_Ungetc@_W@std@@YA_NAB_WPAU_iobuf@@@Z	; std::_Ungetc<wchar_t>
PUBLIC	?to_string@std@@YA?AV?$basic_string@DU?$char_traits@D@std@@V?$allocator@D@2@@1@H@Z ; std::to_string
PUBLIC	??$_Integral_to_string@DH@std@@YA?AV?$basic_string@DU?$char_traits@D@std@@V?$allocator@D@2@@0@H@Z ; std::_Integral_to_string<char,int>
PUBLIC	?to_wstring@std@@YA?AV?$basic_string@_WU?$char_traits@_W@std@@V?$allocator@_W@2@@1@H@Z ; std::to_wstring
PUBLIC	??$_Integral_to_string@_WH@std@@YA?AV?$basic_string@_WU?$char_traits@_W@std@@V?$allocator@_W@2@@0@H@Z ; std::_Integral_to_string<wchar_t,int>
PUBLIC	?Find_number@@YAHQAHHH@Z			; Find_number
PUBLIC	??0TrojBody2@@QAE@XZ				; TrojBody2::TrojBody2
PUBLIC	??0FigurePart@@QAE@XZ				; FigurePart::FigurePart
PUBLIC	??1FigurePart@@QAE@XZ				; FigurePart::~FigurePart
PUBLIC	??0FigurePart@@QAE@$$QAU0@@Z			; FigurePart::FigurePart
PUBLIC	?GetRGBfromColorref@@YA?AUrgb@@K@Z		; GetRGBfromColorref
PUBLIC	?ParseFigurePart@@YA?AUFigurePart@@V?$basic_string@DU?$char_traits@D@std@@V?$allocator@D@2@@std@@@Z ; ParseFigurePart
PUBLIC	??0?$basic_stringstream@DU?$char_traits@D@std@@V?$allocator@D@2@@std@@QAE@ABV?$basic_string@DU?$char_traits@D@std@@V?$allocator@D@2@@1@H@Z ; std::basic_stringstream<char,std::char_traits<char>,std::allocator<char> >::basic_stringstream<char,std::char_traits<char>,std::allocator<char> >
PUBLIC	??1?$basic_stringstream@DU?$char_traits@D@std@@V?$allocator@D@2@@std@@UAE@XZ ; std::basic_stringstream<char,std::char_traits<char>,std::allocator<char> >::~basic_stringstream<char,std::char_traits<char>,std::allocator<char> >
PUBLIC	??0?$basic_stringbuf@DU?$char_traits@D@std@@V?$allocator@D@2@@std@@QAE@ABV?$basic_string@DU?$char_traits@D@std@@V?$allocator@D@2@@1@H@Z ; std::basic_stringbuf<char,std::char_traits<char>,std::allocator<char> >::basic_stringbuf<char,std::char_traits<char>,std::allocator<char> >
PUBLIC	??1?$basic_stringbuf@DU?$char_traits@D@std@@V?$allocator@D@2@@std@@UAE@XZ ; std::basic_stringbuf<char,std::char_traits<char>,std::allocator<char> >::~basic_stringbuf<char,std::char_traits<char>,std::allocator<char> >
PUBLIC	?overflow@?$basic_stringbuf@DU?$char_traits@D@std@@V?$allocator@D@2@@std@@MAEHH@Z ; std::basic_stringbuf<char,std::char_traits<char>,std::allocator<char> >::overflow
PUBLIC	?pbackfail@?$basic_stringbuf@DU?$char_traits@D@std@@V?$allocator@D@2@@std@@MAEHH@Z ; std::basic_stringbuf<char,std::char_traits<char>,std::allocator<char> >::pbackfail
PUBLIC	?underflow@?$basic_stringbuf@DU?$char_traits@D@std@@V?$allocator@D@2@@std@@MAEHXZ ; std::basic_stringbuf<char,std::char_traits<char>,std::allocator<char> >::underflow
PUBLIC	?seekoff@?$basic_stringbuf@DU?$char_traits@D@std@@V?$allocator@D@2@@std@@MAE?AV?$fpos@U_Mbstatet@@@2@_JHH@Z ; std::basic_stringbuf<char,std::char_traits<char>,std::allocator<char> >::seekoff
PUBLIC	?seekpos@?$basic_stringbuf@DU?$char_traits@D@std@@V?$allocator@D@2@@std@@MAE?AV?$fpos@U_Mbstatet@@@2@V32@H@Z ; std::basic_stringbuf<char,std::char_traits<char>,std::allocator<char> >::seekpos
PUBLIC	?_Init@?$basic_stringbuf@DU?$char_traits@D@std@@V?$allocator@D@2@@std@@IAEXPBDIH@Z ; std::basic_stringbuf<char,std::char_traits<char>,std::allocator<char> >::_Init
PUBLIC	?_Tidy@?$basic_stringbuf@DU?$char_traits@D@std@@V?$allocator@D@2@@std@@IAEXXZ ; std::basic_stringbuf<char,std::char_traits<char>,std::allocator<char> >::_Tidy
PUBLIC	?_Getstate@?$basic_stringbuf@DU?$char_traits@D@std@@V?$allocator@D@2@@std@@CAHH@Z ; std::basic_stringbuf<char,std::char_traits<char>,std::allocator<char> >::_Getstate
PUBLIC	??_G?$basic_stringbuf@DU?$char_traits@D@std@@V?$allocator@D@2@@std@@UAEPAXI@Z ; std::basic_stringbuf<char,std::char_traits<char>,std::allocator<char> >::`scalar deleting destructor'
PUBLIC	?__autoclassinit2@?$basic_stringstream@DU?$char_traits@D@std@@V?$allocator@D@2@@std@@QAEXI@Z ; std::basic_stringstream<char,std::char_traits<char>,std::allocator<char> >::__autoclassinit2
PUBLIC	??_G?$basic_stringstream@DU?$char_traits@D@std@@V?$allocator@D@2@@std@@UAEPAXI@Z ; std::basic_stringstream<char,std::char_traits<char>,std::allocator<char> >::`scalar deleting destructor'
PUBLIC	??_D?$basic_stringstream@DU?$char_traits@D@std@@V?$allocator@D@2@@std@@QAEXXZ ; std::basic_stringstream<char,std::char_traits<char>,std::allocator<char> >::`vbase destructor'
PUBLIC	??$?HDU?$char_traits@D@std@@V?$allocator@D@1@@std@@YA?AV?$basic_string@DU?$char_traits@D@std@@V?$allocator@D@2@@0@$$QAV10@0@Z ; std::operator+<char,std::char_traits<char>,std::allocator<char> >
PUBLIC	??$?HDU?$char_traits@D@std@@V?$allocator@D@1@@std@@YA?AV?$basic_string@DU?$char_traits@D@std@@V?$allocator@D@2@@0@ABV10@0@Z ; std::operator+<char,std::char_traits<char>,std::allocator<char> >
PUBLIC	??$?HDU?$char_traits@D@std@@V?$allocator@D@1@@std@@YA?AV?$basic_string@DU?$char_traits@D@std@@V?$allocator@D@2@@0@$$QAV10@QBD@Z ; std::operator+<char,std::char_traits<char>,std::allocator<char> >
PUBLIC	?GetFigurePartsCount@@YAHV?$basic_string@DU?$char_traits@D@std@@V?$allocator@D@2@@std@@@Z ; GetFigurePartsCount
PUBLIC	?GetFigurePart@@YA?AUFigurePart@@V?$basic_string@DU?$char_traits@D@std@@V?$allocator@D@2@@std@@H@Z ; GetFigurePart
PUBLIC	??0?$basic_istringstream@DU?$char_traits@D@std@@V?$allocator@D@2@@std@@QAE@ABV?$basic_string@DU?$char_traits@D@std@@V?$allocator@D@2@@1@H@Z ; std::basic_istringstream<char,std::char_traits<char>,std::allocator<char> >::basic_istringstream<char,std::char_traits<char>,std::allocator<char> >
PUBLIC	??1?$basic_istringstream@DU?$char_traits@D@std@@V?$allocator@D@2@@std@@UAE@XZ ; std::basic_istringstream<char,std::char_traits<char>,std::allocator<char> >::~basic_istringstream<char,std::char_traits<char>,std::allocator<char> >
PUBLIC	?__autoclassinit2@?$basic_istringstream@DU?$char_traits@D@std@@V?$allocator@D@2@@std@@QAEXI@Z ; std::basic_istringstream<char,std::char_traits<char>,std::allocator<char> >::__autoclassinit2
PUBLIC	??_G?$basic_istringstream@DU?$char_traits@D@std@@V?$allocator@D@2@@std@@UAEPAXI@Z ; std::basic_istringstream<char,std::char_traits<char>,std::allocator<char> >::`scalar deleting destructor'
PUBLIC	??_D?$basic_istringstream@DU?$char_traits@D@std@@V?$allocator@D@2@@std@@QAEXXZ ; std::basic_istringstream<char,std::char_traits<char>,std::allocator<char> >::`vbase destructor'
PUBLIC	??$?5DU?$char_traits@D@std@@V?$allocator@D@1@@std@@YAAAV?$basic_istream@DU?$char_traits@D@std@@@0@AAV10@AAV?$basic_string@DU?$char_traits@D@std@@V?$allocator@D@2@@0@@Z ; std::operator>><char,std::char_traits<char>,std::allocator<char> >
PUBLIC	??$?5DU?$char_traits@D@std@@V?$allocator@D@1@@std@@YAAAV?$basic_istream@DU?$char_traits@D@std@@@0@$$QAV10@AAV?$basic_string@DU?$char_traits@D@std@@V?$allocator@D@2@@0@@Z ; std::operator>><char,std::char_traits<char>,std::allocator<char> >
PUBLIC	?s2ws@@YA?AV?$basic_string@_WU?$char_traits@_W@std@@V?$allocator@_W@2@@std@@ABV?$basic_string@DU?$char_traits@D@std@@V?$allocator@D@2@@2@@Z ; s2ws
PUBLIC	?SaveFigurePart@@YAXUFigurePart@@V?$basic_string@DU?$char_traits@D@std@@V?$allocator@D@2@@std@@@Z ; SaveFigurePart
PUBLIC	??0?$basic_ofstream@DU?$char_traits@D@std@@@std@@QAE@XZ ; std::basic_ofstream<char,std::char_traits<char> >::basic_ofstream<char,std::char_traits<char> >
PUBLIC	??0?$basic_ofstream@DU?$char_traits@D@std@@@std@@QAE@PBDHH@Z ; std::basic_ofstream<char,std::char_traits<char> >::basic_ofstream<char,std::char_traits<char> >
PUBLIC	??1?$basic_ofstream@DU?$char_traits@D@std@@@std@@UAE@XZ ; std::basic_ofstream<char,std::char_traits<char> >::~basic_ofstream<char,std::char_traits<char> >
PUBLIC	?close@?$basic_ofstream@DU?$char_traits@D@std@@@std@@QAEXXZ ; std::basic_ofstream<char,std::char_traits<char> >::close
PUBLIC	??0?$basic_filebuf@DU?$char_traits@D@std@@@std@@QAE@XZ ; std::basic_filebuf<char,std::char_traits<char> >::basic_filebuf<char,std::char_traits<char> >
PUBLIC	??1?$basic_filebuf@DU?$char_traits@D@std@@@std@@UAE@XZ ; std::basic_filebuf<char,std::char_traits<char> >::~basic_filebuf<char,std::char_traits<char> >
PUBLIC	?open@?$basic_filebuf@DU?$char_traits@D@std@@@std@@QAEPAV12@PBDHH@Z ; std::basic_filebuf<char,std::char_traits<char> >::open
PUBLIC	?close@?$basic_filebuf@DU?$char_traits@D@std@@@std@@QAEPAV12@XZ ; std::basic_filebuf<char,std::char_traits<char> >::close
PUBLIC	?_Lock@?$basic_filebuf@DU?$char_traits@D@std@@@std@@UAEXXZ ; std::basic_filebuf<char,std::char_traits<char> >::_Lock
PUBLIC	?_Unlock@?$basic_filebuf@DU?$char_traits@D@std@@@std@@UAEXXZ ; std::basic_filebuf<char,std::char_traits<char> >::_Unlock
PUBLIC	?overflow@?$basic_filebuf@DU?$char_traits@D@std@@@std@@MAEHH@Z ; std::basic_filebuf<char,std::char_traits<char> >::overflow
PUBLIC	?pbackfail@?$basic_filebuf@DU?$char_traits@D@std@@@std@@MAEHH@Z ; std::basic_filebuf<char,std::char_traits<char> >::pbackfail
PUBLIC	?underflow@?$basic_filebuf@DU?$char_traits@D@std@@@std@@MAEHXZ ; std::basic_filebuf<char,std::char_traits<char> >::underflow
PUBLIC	?uflow@?$basic_filebuf@DU?$char_traits@D@std@@@std@@MAEHXZ ; std::basic_filebuf<char,std::char_traits<char> >::uflow
PUBLIC	?xsgetn@?$basic_filebuf@DU?$char_traits@D@std@@@std@@MAE_JPAD_J@Z ; std::basic_filebuf<char,std::char_traits<char> >::xsgetn
PUBLIC	?xsputn@?$basic_filebuf@DU?$char_traits@D@std@@@std@@MAE_JPBD_J@Z ; std::basic_filebuf<char,std::char_traits<char> >::xsputn
PUBLIC	?seekoff@?$basic_filebuf@DU?$char_traits@D@std@@@std@@MAE?AV?$fpos@U_Mbstatet@@@2@_JHH@Z ; std::basic_filebuf<char,std::char_traits<char> >::seekoff
PUBLIC	?seekpos@?$basic_filebuf@DU?$char_traits@D@std@@@std@@MAE?AV?$fpos@U_Mbstatet@@@2@V32@H@Z ; std::basic_filebuf<char,std::char_traits<char> >::seekpos
PUBLIC	?setbuf@?$basic_filebuf@DU?$char_traits@D@std@@@std@@MAEPAV?$basic_streambuf@DU?$char_traits@D@std@@@2@PAD_J@Z ; std::basic_filebuf<char,std::char_traits<char> >::setbuf
PUBLIC	?sync@?$basic_filebuf@DU?$char_traits@D@std@@@std@@MAEHXZ ; std::basic_filebuf<char,std::char_traits<char> >::sync
PUBLIC	?imbue@?$basic_filebuf@DU?$char_traits@D@std@@@std@@MAEXABVlocale@2@@Z ; std::basic_filebuf<char,std::char_traits<char> >::imbue
PUBLIC	?_Init@?$basic_filebuf@DU?$char_traits@D@std@@@std@@IAEXPAU_iobuf@@W4_Initfl@12@@Z ; std::basic_filebuf<char,std::char_traits<char> >::_Init
PUBLIC	?_Endwrite@?$basic_filebuf@DU?$char_traits@D@std@@@std@@IAE_NXZ ; std::basic_filebuf<char,std::char_traits<char> >::_Endwrite
PUBLIC	?_Initcvt@?$basic_filebuf@DU?$char_traits@D@std@@@std@@IAEXABV?$codecvt@DDU_Mbstatet@@@2@@Z ; std::basic_filebuf<char,std::char_traits<char> >::_Initcvt
PUBLIC	?_Reset_back@?$basic_filebuf@DU?$char_traits@D@std@@@std@@AAEXXZ ; std::basic_filebuf<char,std::char_traits<char> >::_Reset_back
PUBLIC	?_Set_back@?$basic_filebuf@DU?$char_traits@D@std@@@std@@AAEXXZ ; std::basic_filebuf<char,std::char_traits<char> >::_Set_back
PUBLIC	??_G?$basic_filebuf@DU?$char_traits@D@std@@@std@@UAEPAXI@Z ; std::basic_filebuf<char,std::char_traits<char> >::`scalar deleting destructor'
PUBLIC	?__autoclassinit2@?$basic_ofstream@DU?$char_traits@D@std@@@std@@QAEXI@Z ; std::basic_ofstream<char,std::char_traits<char> >::__autoclassinit2
PUBLIC	??_G?$basic_ofstream@DU?$char_traits@D@std@@@std@@UAEPAXI@Z ; std::basic_ofstream<char,std::char_traits<char> >::`scalar deleting destructor'
PUBLIC	??_D?$basic_ofstream@DU?$char_traits@D@std@@@std@@QAEXXZ ; std::basic_ofstream<char,std::char_traits<char> >::`vbase destructor'
PUBLIC	??$?6U?$char_traits@D@std@@@std@@YAAAV?$basic_ostream@DU?$char_traits@D@std@@@0@AAV10@PBD@Z ; std::operator<<<std::char_traits<char> >
PUBLIC	??$?6DU?$char_traits@D@std@@V?$allocator@D@1@@std@@YAAAV?$basic_ostream@DU?$char_traits@D@std@@@0@AAV10@ABV?$basic_string@DU?$char_traits@D@std@@V?$allocator@D@2@@0@@Z ; std::operator<<<char,std::char_traits<char>,std::allocator<char> >
PUBLIC	?SaveFigurePartW@@YAXUFigurePart@@V?$basic_string@_WU?$char_traits@_W@std@@V?$allocator@_W@2@@std@@@Z ; SaveFigurePartW
PUBLIC	??0?$basic_ofstream@_WU?$char_traits@_W@std@@@std@@QAE@PB_WHH@Z ; std::basic_ofstream<wchar_t,std::char_traits<wchar_t> >::basic_ofstream<wchar_t,std::char_traits<wchar_t> >
PUBLIC	??1?$basic_ofstream@_WU?$char_traits@_W@std@@@std@@UAE@XZ ; std::basic_ofstream<wchar_t,std::char_traits<wchar_t> >::~basic_ofstream<wchar_t,std::char_traits<wchar_t> >
PUBLIC	?close@?$basic_ofstream@_WU?$char_traits@_W@std@@@std@@QAEXXZ ; std::basic_ofstream<wchar_t,std::char_traits<wchar_t> >::close
PUBLIC	??0?$basic_filebuf@_WU?$char_traits@_W@std@@@std@@QAE@XZ ; std::basic_filebuf<wchar_t,std::char_traits<wchar_t> >::basic_filebuf<wchar_t,std::char_traits<wchar_t> >
PUBLIC	??1?$basic_filebuf@_WU?$char_traits@_W@std@@@std@@UAE@XZ ; std::basic_filebuf<wchar_t,std::char_traits<wchar_t> >::~basic_filebuf<wchar_t,std::char_traits<wchar_t> >
PUBLIC	?open@?$basic_filebuf@_WU?$char_traits@_W@std@@@std@@QAEPAV12@PB_WHH@Z ; std::basic_filebuf<wchar_t,std::char_traits<wchar_t> >::open
PUBLIC	?close@?$basic_filebuf@_WU?$char_traits@_W@std@@@std@@QAEPAV12@XZ ; std::basic_filebuf<wchar_t,std::char_traits<wchar_t> >::close
PUBLIC	?_Lock@?$basic_filebuf@_WU?$char_traits@_W@std@@@std@@UAEXXZ ; std::basic_filebuf<wchar_t,std::char_traits<wchar_t> >::_Lock
PUBLIC	?_Unlock@?$basic_filebuf@_WU?$char_traits@_W@std@@@std@@UAEXXZ ; std::basic_filebuf<wchar_t,std::char_traits<wchar_t> >::_Unlock
PUBLIC	?overflow@?$basic_filebuf@_WU?$char_traits@_W@std@@@std@@MAEGG@Z ; std::basic_filebuf<wchar_t,std::char_traits<wchar_t> >::overflow
PUBLIC	?pbackfail@?$basic_filebuf@_WU?$char_traits@_W@std@@@std@@MAEGG@Z ; std::basic_filebuf<wchar_t,std::char_traits<wchar_t> >::pbackfail
PUBLIC	?underflow@?$basic_filebuf@_WU?$char_traits@_W@std@@@std@@MAEGXZ ; std::basic_filebuf<wchar_t,std::char_traits<wchar_t> >::underflow
PUBLIC	?uflow@?$basic_filebuf@_WU?$char_traits@_W@std@@@std@@MAEGXZ ; std::basic_filebuf<wchar_t,std::char_traits<wchar_t> >::uflow
PUBLIC	?xsgetn@?$basic_filebuf@_WU?$char_traits@_W@std@@@std@@MAE_JPA_W_J@Z ; std::basic_filebuf<wchar_t,std::char_traits<wchar_t> >::xsgetn
PUBLIC	?xsputn@?$basic_filebuf@_WU?$char_traits@_W@std@@@std@@MAE_JPB_W_J@Z ; std::basic_filebuf<wchar_t,std::char_traits<wchar_t> >::xsputn
PUBLIC	?seekoff@?$basic_filebuf@_WU?$char_traits@_W@std@@@std@@MAE?AV?$fpos@U_Mbstatet@@@2@_JHH@Z ; std::basic_filebuf<wchar_t,std::char_traits<wchar_t> >::seekoff
PUBLIC	?seekpos@?$basic_filebuf@_WU?$char_traits@_W@std@@@std@@MAE?AV?$fpos@U_Mbstatet@@@2@V32@H@Z ; std::basic_filebuf<wchar_t,std::char_traits<wchar_t> >::seekpos
PUBLIC	?setbuf@?$basic_filebuf@_WU?$char_traits@_W@std@@@std@@MAEPAV?$basic_streambuf@_WU?$char_traits@_W@std@@@2@PA_W_J@Z ; std::basic_filebuf<wchar_t,std::char_traits<wchar_t> >::setbuf
PUBLIC	?sync@?$basic_filebuf@_WU?$char_traits@_W@std@@@std@@MAEHXZ ; std::basic_filebuf<wchar_t,std::char_traits<wchar_t> >::sync
PUBLIC	?imbue@?$basic_filebuf@_WU?$char_traits@_W@std@@@std@@MAEXABVlocale@2@@Z ; std::basic_filebuf<wchar_t,std::char_traits<wchar_t> >::imbue
PUBLIC	?_Init@?$basic_filebuf@_WU?$char_traits@_W@std@@@std@@IAEXPAU_iobuf@@W4_Initfl@12@@Z ; std::basic_filebuf<wchar_t,std::char_traits<wchar_t> >::_Init
PUBLIC	?_Endwrite@?$basic_filebuf@_WU?$char_traits@_W@std@@@std@@IAE_NXZ ; std::basic_filebuf<wchar_t,std::char_traits<wchar_t> >::_Endwrite
PUBLIC	?_Initcvt@?$basic_filebuf@_WU?$char_traits@_W@std@@@std@@IAEXABV?$codecvt@_WDU_Mbstatet@@@2@@Z ; std::basic_filebuf<wchar_t,std::char_traits<wchar_t> >::_Initcvt
PUBLIC	?_Reset_back@?$basic_filebuf@_WU?$char_traits@_W@std@@@std@@AAEXXZ ; std::basic_filebuf<wchar_t,std::char_traits<wchar_t> >::_Reset_back
PUBLIC	?_Set_back@?$basic_filebuf@_WU?$char_traits@_W@std@@@std@@AAEXXZ ; std::basic_filebuf<wchar_t,std::char_traits<wchar_t> >::_Set_back
PUBLIC	??_G?$basic_filebuf@_WU?$char_traits@_W@std@@@std@@UAEPAXI@Z ; std::basic_filebuf<wchar_t,std::char_traits<wchar_t> >::`scalar deleting destructor'
PUBLIC	?__autoclassinit2@?$basic_ofstream@_WU?$char_traits@_W@std@@@std@@QAEXI@Z ; std::basic_ofstream<wchar_t,std::char_traits<wchar_t> >::__autoclassinit2
PUBLIC	??_G?$basic_ofstream@_WU?$char_traits@_W@std@@@std@@UAEPAXI@Z ; std::basic_ofstream<wchar_t,std::char_traits<wchar_t> >::`scalar deleting destructor'
PUBLIC	??_D?$basic_ofstream@_WU?$char_traits@_W@std@@@std@@QAEXXZ ; std::basic_ofstream<wchar_t,std::char_traits<wchar_t> >::`vbase destructor'
PUBLIC	??$?6_WU?$char_traits@_W@std@@@std@@YAAAV?$basic_ostream@_WU?$char_traits@_W@std@@@0@AAV10@PB_W@Z ; std::operator<<<wchar_t,std::char_traits<wchar_t> >
PUBLIC	?SaveFigure@@YAXV?$basic_string@DU?$char_traits@D@std@@V?$allocator@D@2@@std@@0@Z ; SaveFigure
PUBLIC	?GetFigureFromFile@@YA?AV?$basic_string@DU?$char_traits@D@std@@V?$allocator@D@2@@std@@V12@@Z ; GetFigureFromFile
PUBLIC	??0?$basic_ifstream@DU?$char_traits@D@std@@@std@@QAE@PBDHH@Z ; std::basic_ifstream<char,std::char_traits<char> >::basic_ifstream<char,std::char_traits<char> >
PUBLIC	??1?$basic_ifstream@DU?$char_traits@D@std@@@std@@UAE@XZ ; std::basic_ifstream<char,std::char_traits<char> >::~basic_ifstream<char,std::char_traits<char> >
PUBLIC	?__autoclassinit2@?$basic_ifstream@DU?$char_traits@D@std@@@std@@QAEXI@Z ; std::basic_ifstream<char,std::char_traits<char> >::__autoclassinit2
PUBLIC	??_G?$basic_ifstream@DU?$char_traits@D@std@@@std@@UAEPAXI@Z ; std::basic_ifstream<char,std::char_traits<char> >::`scalar deleting destructor'
PUBLIC	??_D?$basic_ifstream@DU?$char_traits@D@std@@@std@@QAEXXZ ; std::basic_ifstream<char,std::char_traits<char> >::`vbase destructor'
PUBLIC	??$getline@DU?$char_traits@D@std@@V?$allocator@D@2@@std@@YAAAV?$basic_istream@DU?$char_traits@D@std@@@0@AAV10@AAV?$basic_string@DU?$char_traits@D@std@@V?$allocator@D@2@@0@@Z ; std::getline<char,std::char_traits<char>,std::allocator<char> >
PUBLIC	?CreateFigureFromFigureParts@@YA?AV?$basic_string@DU?$char_traits@D@std@@V?$allocator@D@2@@std@@QAUFigurePart@@H@Z ; CreateFigureFromFigureParts
PUBLIC	?SaveFigurePartToSvg@@YAXUFigurePart@@V?$basic_string@DU?$char_traits@D@std@@V?$allocator@D@2@@std@@@Z ; SaveFigurePartToSvg
PUBLIC	??$endl@DU?$char_traits@D@std@@@std@@YAAAV?$basic_ostream@DU?$char_traits@D@std@@@0@AAV10@@Z ; std::endl<char,std::char_traits<char> >
PUBLIC	??$?HDU?$char_traits@D@std@@V?$allocator@D@1@@std@@YA?AV?$basic_string@DU?$char_traits@D@std@@V?$allocator@D@2@@0@QBD$$QAV10@@Z ; std::operator+<char,std::char_traits<char>,std::allocator<char> >
PUBLIC	?SaveFigurePartToHtml@@YAXUFigurePart@@V?$basic_string@DU?$char_traits@D@std@@V?$allocator@D@2@@std@@@Z ; SaveFigurePartToHtml
PUBLIC	?SaveFigurePartToSvgW@@YAXUFigurePart@@V?$basic_string@_WU?$char_traits@_W@std@@V?$allocator@_W@2@@std@@@Z ; SaveFigurePartToSvgW
PUBLIC	??$endl@_WU?$char_traits@_W@std@@@std@@YAAAV?$basic_ostream@_WU?$char_traits@_W@std@@@0@AAV10@@Z ; std::endl<wchar_t,std::char_traits<wchar_t> >
PUBLIC	??$?H_WU?$char_traits@_W@std@@V?$allocator@_W@1@@std@@YA?AV?$basic_string@_WU?$char_traits@_W@std@@V?$allocator@_W@2@@0@QB_W$$QAV10@@Z ; std::operator+<wchar_t,std::char_traits<wchar_t>,std::allocator<wchar_t> >
PUBLIC	??$?H_WU?$char_traits@_W@std@@V?$allocator@_W@1@@std@@YA?AV?$basic_string@_WU?$char_traits@_W@std@@V?$allocator@_W@2@@0@$$QAV10@QB_W@Z ; std::operator+<wchar_t,std::char_traits<wchar_t>,std::allocator<wchar_t> >
PUBLIC	??$?H_WU?$char_traits@_W@std@@V?$allocator@_W@1@@std@@YA?AV?$basic_string@_WU?$char_traits@_W@std@@V?$allocator@_W@2@@0@$$QAV10@0@Z ; std::operator+<wchar_t,std::char_traits<wchar_t>,std::allocator<wchar_t> >
PUBLIC	??$?6_WU?$char_traits@_W@std@@V?$allocator@_W@1@@std@@YAAAV?$basic_ostream@_WU?$char_traits@_W@std@@@0@AAV10@ABV?$basic_string@_WU?$char_traits@_W@std@@V?$allocator@_W@2@@0@@Z ; std::operator<<<wchar_t,std::char_traits<wchar_t>,std::allocator<wchar_t> >
PUBLIC	?SaveFigurePartToHtmlW@@YAXUFigurePart@@V?$basic_string@_WU?$char_traits@_W@std@@V?$allocator@_W@2@@std@@@Z ; SaveFigurePartToHtmlW
PUBLIC	?FindMax@@YAHQAHH@Z				; FindMax
PUBLIC	?FindMin@@YAHQAHH@Z				; FindMin
PUBLIC	?GetColorFromChooseColorDialog@@YA?AU_D3DCOLORVALUE@@XZ ; GetColorFromChooseColorDialog
PUBLIC	?GetColorFromChooseColorDialog2@@YAKXZ		; GetColorFromChooseColorDialog2
PUBLIC	??0Objekt@@QAE@XZ				; Objekt::Objekt
PUBLIC	??1Objekt@@QAE@XZ				; Objekt::~Objekt
PUBLIC	?_TrojBody@@YA?AUTrojBody@@HHHH@Z		; _TrojBody
PUBLIC	?_TrojBody2@@YA?AUTrojBody2@@HHHHHH@Z		; _TrojBody2
PUBLIC	?RotatePrimka@@YA?AUD2D_POINT_2F@@MMMMM_N@Z	; RotatePrimka
PUBLIC	??$pow@MH$0A@@@YANMH@Z				; pow<float,int,0>
PUBLIC	?RotatePrimka2@@YA?AUD2D_POINT_2F@@U1@0M_N@Z	; RotatePrimka2
PUBLIC	??0Trojuhelnik@@QAE@PAUID2D1HwndRenderTarget@@PAUID2D1SolidColorBrush@@UTrojBody2@@H@Z ; Trojuhelnik::Trojuhelnik
PUBLIC	??1Trojuhelnik@@QAE@XZ				; Trojuhelnik::~Trojuhelnik
PUBLIC	?Draw@Trojuhelnik@@QAEXXZ			; Trojuhelnik::Draw
PUBLIC	?Erase@Trojuhelnik@@QAEXXZ			; Trojuhelnik::Erase
PUBLIC	?Move2@Trojuhelnik@@QAEXHH_N@Z			; Trojuhelnik::Move2
PUBLIC	?__autoclassinit2@Trojuhelnik@@QAEXI@Z		; Trojuhelnik::__autoclassinit2
PUBLIC	?DrawGrid@@YAXPAUID2D1HwndRenderTarget@@PAUID2D1SolidColorBrush@@HH@Z ; DrawGrid
PUBLIC	?Zoom@@YAXPAUID2D1RenderTarget@@MM@Z		; Zoom
PUBLIC	?Collision@@YAHUCollision_area@@0@Z		; Collision
PUBLIC	??$AtlMultiply@I@ATL@@YAJPAIII@Z		; ATL::AtlMultiply<unsigned int>
PUBLIC	?Allocate@CCRTAllocator@ATL@@SAPAXI@Z		; ATL::CCRTAllocator::Allocate
PUBLIC	?Free@CCRTAllocator@ATL@@SAXPAX@Z		; ATL::CCRTAllocator::Free
PUBLIC	??0?$CTraceCategoryEx@$0IAAAA@$0A@@ATL@@QAE@PB_W@Z ; ATL::CTraceCategoryEx<524288,0>::CTraceCategoryEx<524288,0>
PUBLIC	??0?$CTraceCategoryEx@$00$0A@@ATL@@QAE@PB_W@Z	; ATL::CTraceCategoryEx<1,0>::CTraceCategoryEx<1,0>
PUBLIC	??0?$CTraceCategoryEx@$01$0A@@ATL@@QAE@PB_W@Z	; ATL::CTraceCategoryEx<2,0>::CTraceCategoryEx<2,0>
PUBLIC	??B?$CTraceCategoryEx@$01$0A@@ATL@@QAEIXZ	; ATL::CTraceCategoryEx<2,0>::operator unsigned int
PUBLIC	??0?$CTraceCategoryEx@$03$0A@@ATL@@QAE@PB_W@Z	; ATL::CTraceCategoryEx<4,0>::CTraceCategoryEx<4,0>
PUBLIC	??0?$CTraceCategoryEx@$07$0A@@ATL@@QAE@PB_W@Z	; ATL::CTraceCategoryEx<8,0>::CTraceCategoryEx<8,0>
PUBLIC	??0?$CTraceCategoryEx@$0BA@$0A@@ATL@@QAE@PB_W@Z	; ATL::CTraceCategoryEx<16,0>::CTraceCategoryEx<16,0>
PUBLIC	??0?$CTraceCategoryEx@$0CA@$0A@@ATL@@QAE@PB_W@Z	; ATL::CTraceCategoryEx<32,0>::CTraceCategoryEx<32,0>
PUBLIC	??B?$CTraceCategoryEx@$0CA@$0A@@ATL@@QAEIXZ	; ATL::CTraceCategoryEx<32,0>::operator unsigned int
PUBLIC	??0?$CTraceCategoryEx@$0EA@$0A@@ATL@@QAE@PB_W@Z	; ATL::CTraceCategoryEx<64,0>::CTraceCategoryEx<64,0>
PUBLIC	??0?$CTraceCategoryEx@$0IA@$0A@@ATL@@QAE@PB_W@Z	; ATL::CTraceCategoryEx<128,0>::CTraceCategoryEx<128,0>
PUBLIC	??0?$CTraceCategoryEx@$0BAA@$0A@@ATL@@QAE@PB_W@Z ; ATL::CTraceCategoryEx<256,0>::CTraceCategoryEx<256,0>
PUBLIC	??0?$CTraceCategoryEx@$0CAA@$0A@@ATL@@QAE@PB_W@Z ; ATL::CTraceCategoryEx<512,0>::CTraceCategoryEx<512,0>
PUBLIC	??0?$CTraceCategoryEx@$0EAA@$0A@@ATL@@QAE@PB_W@Z ; ATL::CTraceCategoryEx<1024,0>::CTraceCategoryEx<1024,0>
PUBLIC	??0?$CTraceCategoryEx@$0IAA@$0A@@ATL@@QAE@PB_W@Z ; ATL::CTraceCategoryEx<2048,0>::CTraceCategoryEx<2048,0>
PUBLIC	??0?$CTraceCategoryEx@$0BAAA@$0A@@ATL@@QAE@PB_W@Z ; ATL::CTraceCategoryEx<4096,0>::CTraceCategoryEx<4096,0>
PUBLIC	??0?$CTraceCategoryEx@$0CAAA@$0A@@ATL@@QAE@PB_W@Z ; ATL::CTraceCategoryEx<8192,0>::CTraceCategoryEx<8192,0>
PUBLIC	??0?$CTraceCategoryEx@$0EAAA@$0A@@ATL@@QAE@PB_W@Z ; ATL::CTraceCategoryEx<16384,0>::CTraceCategoryEx<16384,0>
PUBLIC	??0?$CTraceCategoryEx@$0IAAA@$0A@@ATL@@QAE@PB_W@Z ; ATL::CTraceCategoryEx<32768,0>::CTraceCategoryEx<32768,0>
PUBLIC	??0?$CTraceCategoryEx@$0BAAAA@$0A@@ATL@@QAE@PB_W@Z ; ATL::CTraceCategoryEx<65536,0>::CTraceCategoryEx<65536,0>
PUBLIC	??0?$CTraceCategoryEx@$0CAAAA@$0A@@ATL@@QAE@PB_W@Z ; ATL::CTraceCategoryEx<131072,0>::CTraceCategoryEx<131072,0>
PUBLIC	??0?$CTraceCategoryEx@$0EAAAA@$0A@@ATL@@QAE@PB_W@Z ; ATL::CTraceCategoryEx<262144,0>::CTraceCategoryEx<262144,0>
PUBLIC	??0?$CTraceCategoryEx@$0BAAAAA@$0A@@ATL@@QAE@PB_W@Z ; ATL::CTraceCategoryEx<1048576,0>::CTraceCategoryEx<1048576,0>
PUBLIC	??0?$CTraceCategoryEx@$0CAAAAA@$0A@@ATL@@QAE@PB_W@Z ; ATL::CTraceCategoryEx<2097152,0>::CTraceCategoryEx<2097152,0>
PUBLIC	??0?$CTraceCategoryEx@$0EAAAAA@$0A@@ATL@@QAE@PB_W@Z ; ATL::CTraceCategoryEx<4194304,0>::CTraceCategoryEx<4194304,0>
PUBLIC	?GetCategoryName@CTrace@ATL@@CAPA_WI@Z		; ATL::CTrace::GetCategoryName
PUBLIC	?TraceV@CTrace@ATL@@CAXPBDHIIPB_W@Z		; ATL::CTrace::TraceV
PUBLIC	?TraceV@CTrace@ATL@@SAXPBDHIIPB_WPAD@Z		; ATL::CTrace::TraceV
PUBLIC	?RegisterCategory@CTrace@ATL@@SAXPB_WI@Z	; ATL::CTrace::RegisterCategory
PUBLIC	??0?$CHeapPtrBase@_WVCCRTAllocator@ATL@@@ATL@@IAE@XZ ; ATL::CHeapPtrBase<wchar_t,ATL::CCRTAllocator>::CHeapPtrBase<wchar_t,ATL::CCRTAllocator>
PUBLIC	??1?$CHeapPtrBase@_WVCCRTAllocator@ATL@@@ATL@@QAE@XZ ; ATL::CHeapPtrBase<wchar_t,ATL::CCRTAllocator>::~CHeapPtrBase<wchar_t,ATL::CCRTAllocator>
PUBLIC	??B?$CHeapPtrBase@_WVCCRTAllocator@ATL@@@ATL@@QBEPA_WXZ ; ATL::CHeapPtrBase<wchar_t,ATL::CCRTAllocator>::operator wchar_t *
PUBLIC	?AllocateBytes@?$CHeapPtrBase@_WVCCRTAllocator@ATL@@@ATL@@QAE_NI@Z ; ATL::CHeapPtrBase<wchar_t,ATL::CCRTAllocator>::AllocateBytes
PUBLIC	?Free@?$CHeapPtrBase@_WVCCRTAllocator@ATL@@@ATL@@QAEXXZ ; ATL::CHeapPtrBase<wchar_t,ATL::CCRTAllocator>::Free
PUBLIC	??0?$CHeapPtr@_WVCCRTAllocator@ATL@@@ATL@@QAE@XZ ; ATL::CHeapPtr<wchar_t,ATL::CCRTAllocator>::CHeapPtr<wchar_t,ATL::CCRTAllocator>
PUBLIC	?Allocate@?$CHeapPtr@_WVCCRTAllocator@ATL@@@ATL@@QAE_NI@Z ; ATL::CHeapPtr<wchar_t,ATL::CCRTAllocator>::Allocate
PUBLIC	??1?$CHeapPtr@_WVCCRTAllocator@ATL@@@ATL@@QAE@XZ ; ATL::CHeapPtr<wchar_t,ATL::CCRTAllocator>::~CHeapPtr<wchar_t,ATL::CCRTAllocator>
PUBLIC	?__autoclassinit2@?$CHeapPtr@_WVCCRTAllocator@ATL@@@ATL@@QAEXI@Z ; ATL::CHeapPtr<wchar_t,ATL::CCRTAllocator>::__autoclassinit2
PUBLIC	??0CPreserveLastError@ATL@@QAE@XZ		; ATL::CPreserveLastError::CPreserveLastError
PUBLIC	??1CPreserveLastError@ATL@@QAE@XZ		; ATL::CPreserveLastError::~CPreserveLastError
PUBLIC	??0CTraceFileAndLineInfo@ATL@@QAE@PBDH@Z	; ATL::CTraceFileAndLineInfo::CTraceFileAndLineInfo
PUBLIC	??RCTraceFileAndLineInfo@ATL@@QBAXHIPB_WZZ	; ATL::CTraceFileAndLineInfo::operator()
PUBLIC	?_AtlRaiseException@ATL@@YAXKK@Z		; ATL::_AtlRaiseException
PUBLIC	?_AtlInitializeCriticalSectionEx@ATL@@YAHPAU_RTL_CRITICAL_SECTION@@KK@Z ; ATL::_AtlInitializeCriticalSectionEx
PUBLIC	??0CComCriticalSection@ATL@@QAE@XZ		; ATL::CComCriticalSection::CComCriticalSection
PUBLIC	??1CComCriticalSection@ATL@@QAE@XZ		; ATL::CComCriticalSection::~CComCriticalSection
PUBLIC	?Init@CComCriticalSection@ATL@@QAEJXZ		; ATL::CComCriticalSection::Init
PUBLIC	?Term@CComCriticalSection@ATL@@QAEJXZ		; ATL::CComCriticalSection::Term
PUBLIC	?GetModuleInstance@CAtlBaseModule@ATL@@QAEPAUHINSTANCE__@@XZ ; ATL::CAtlBaseModule::GetModuleInstance
PUBLIC	??0_ATL_COM_MODULE70@ATL@@QAE@XZ		; ATL::_ATL_COM_MODULE70::_ATL_COM_MODULE70
PUBLIC	??1_ATL_COM_MODULE70@ATL@@QAE@XZ		; ATL::_ATL_COM_MODULE70::~_ATL_COM_MODULE70
PUBLIC	??0?$CSimpleArray@GV?$CSimpleArrayEqualHelper@G@ATL@@@ATL@@QAE@XZ ; ATL::CSimpleArray<unsigned short,ATL::CSimpleArrayEqualHelper<unsigned short> >::CSimpleArray<unsigned short,ATL::CSimpleArrayEqualHelper<unsigned short> >
PUBLIC	??1?$CSimpleArray@GV?$CSimpleArrayEqualHelper@G@ATL@@@ATL@@QAE@XZ ; ATL::CSimpleArray<unsigned short,ATL::CSimpleArrayEqualHelper<unsigned short> >::~CSimpleArray<unsigned short,ATL::CSimpleArrayEqualHelper<unsigned short> >
PUBLIC	?GetSize@?$CSimpleArray@GV?$CSimpleArrayEqualHelper@G@ATL@@@ATL@@QBEHXZ ; ATL::CSimpleArray<unsigned short,ATL::CSimpleArrayEqualHelper<unsigned short> >::GetSize
PUBLIC	?RemoveAll@?$CSimpleArray@GV?$CSimpleArrayEqualHelper@G@ATL@@@ATL@@QAEXXZ ; ATL::CSimpleArray<unsigned short,ATL::CSimpleArrayEqualHelper<unsigned short> >::RemoveAll
PUBLIC	??A?$CSimpleArray@GV?$CSimpleArrayEqualHelper@G@ATL@@@ATL@@QAEAAGH@Z ; ATL::CSimpleArray<unsigned short,ATL::CSimpleArrayEqualHelper<unsigned short> >::operator[]
PUBLIC	??0_ATL_WIN_MODULE70@ATL@@QAE@XZ		; ATL::_ATL_WIN_MODULE70::_ATL_WIN_MODULE70
PUBLIC	??1_ATL_WIN_MODULE70@ATL@@QAE@XZ		; ATL::_ATL_WIN_MODULE70::~_ATL_WIN_MODULE70
PUBLIC	?AtlWinModuleInit@ATL@@YGJPAU_ATL_WIN_MODULE70@1@@Z ; ATL::AtlWinModuleInit
PUBLIC	?AtlWinModuleTerm@ATL@@YGJPAU_ATL_WIN_MODULE70@1@PAUHINSTANCE__@@@Z ; ATL::AtlWinModuleTerm
PUBLIC	??0CAtlComModule@ATL@@QAE@XZ			; ATL::CAtlComModule::CAtlComModule
PUBLIC	??1CAtlComModule@ATL@@QAE@XZ			; ATL::CAtlComModule::~CAtlComModule
PUBLIC	?Term@CAtlComModule@ATL@@QAEXXZ			; ATL::CAtlComModule::Term
PUBLIC	??0CAtlWinModule@ATL@@QAE@XZ			; ATL::CAtlWinModule::CAtlWinModule
PUBLIC	??1CAtlWinModule@ATL@@QAE@XZ			; ATL::CAtlWinModule::~CAtlWinModule
PUBLIC	?Term@CAtlWinModule@ATL@@QAEXXZ			; ATL::CAtlWinModule::Term
PUBLIC	??0COLORPICKOPT@@QAE@XZ				; COLORPICKOPT::COLORPICKOPT
PUBLIC	??0?$CComPtrBase@UIDWriteFactory@@@ATL@@IAE@XZ	; ATL::CComPtrBase<IDWriteFactory>::CComPtrBase<IDWriteFactory>
PUBLIC	??1?$CComPtrBase@UIDWriteFactory@@@ATL@@QAE@XZ	; ATL::CComPtrBase<IDWriteFactory>::~CComPtrBase<IDWriteFactory>
PUBLIC	??B?$CComPtrBase@UIDWriteFactory@@@ATL@@QBEPAUIDWriteFactory@@XZ ; ATL::CComPtrBase<IDWriteFactory>::operator IDWriteFactory *
PUBLIC	??I?$CComPtrBase@UIDWriteFactory@@@ATL@@QAEPAPAUIDWriteFactory@@XZ ; ATL::CComPtrBase<IDWriteFactory>::operator&
PUBLIC	??7?$CComPtrBase@UIDWriteFactory@@@ATL@@QBE_NXZ	; ATL::CComPtrBase<IDWriteFactory>::operator!
PUBLIC	??0?$CComPtr@UIDWriteFactory@@@ATL@@QAE@XZ	; ATL::CComPtr<IDWriteFactory>::CComPtr<IDWriteFactory>
PUBLIC	??1?$CComPtr@UIDWriteFactory@@@ATL@@QAE@XZ	; ATL::CComPtr<IDWriteFactory>::~CComPtr<IDWriteFactory>
PUBLIC	??0?$CComPtrBase@UID2D1HwndRenderTarget@@@ATL@@IAE@XZ ; ATL::CComPtrBase<ID2D1HwndRenderTarget>::CComPtrBase<ID2D1HwndRenderTarget>
PUBLIC	??1?$CComPtrBase@UID2D1HwndRenderTarget@@@ATL@@QAE@XZ ; ATL::CComPtrBase<ID2D1HwndRenderTarget>::~CComPtrBase<ID2D1HwndRenderTarget>
PUBLIC	??B?$CComPtrBase@UID2D1HwndRenderTarget@@@ATL@@QBEPAUID2D1HwndRenderTarget@@XZ ; ATL::CComPtrBase<ID2D1HwndRenderTarget>::operator ID2D1HwndRenderTarget *
PUBLIC	??I?$CComPtrBase@UID2D1HwndRenderTarget@@@ATL@@QAEPAPAUID2D1HwndRenderTarget@@XZ ; ATL::CComPtrBase<ID2D1HwndRenderTarget>::operator&
PUBLIC	??C?$CComPtrBase@UID2D1HwndRenderTarget@@@ATL@@QBEPAV?$_NoAddRefReleaseOnCComPtr@UID2D1HwndRenderTarget@@@1@XZ ; ATL::CComPtrBase<ID2D1HwndRenderTarget>::operator->
PUBLIC	??7?$CComPtrBase@UID2D1HwndRenderTarget@@@ATL@@QBE_NXZ ; ATL::CComPtrBase<ID2D1HwndRenderTarget>::operator!
PUBLIC	?Release@?$CComPtrBase@UID2D1HwndRenderTarget@@@ATL@@QAEXXZ ; ATL::CComPtrBase<ID2D1HwndRenderTarget>::Release
PUBLIC	??0?$CComPtr@UID2D1HwndRenderTarget@@@ATL@@QAE@XZ ; ATL::CComPtr<ID2D1HwndRenderTarget>::CComPtr<ID2D1HwndRenderTarget>
PUBLIC	??1?$CComPtr@UID2D1HwndRenderTarget@@@ATL@@QAE@XZ ; ATL::CComPtr<ID2D1HwndRenderTarget>::~CComPtr<ID2D1HwndRenderTarget>
PUBLIC	??0?$CComPtrBase@UID2D1Factory@@@ATL@@IAE@XZ	; ATL::CComPtrBase<ID2D1Factory>::CComPtrBase<ID2D1Factory>
PUBLIC	??1?$CComPtrBase@UID2D1Factory@@@ATL@@QAE@XZ	; ATL::CComPtrBase<ID2D1Factory>::~CComPtrBase<ID2D1Factory>
PUBLIC	??B?$CComPtrBase@UID2D1Factory@@@ATL@@QBEPAUID2D1Factory@@XZ ; ATL::CComPtrBase<ID2D1Factory>::operator ID2D1Factory *
PUBLIC	??I?$CComPtrBase@UID2D1Factory@@@ATL@@QAEPAPAUID2D1Factory@@XZ ; ATL::CComPtrBase<ID2D1Factory>::operator&
PUBLIC	??C?$CComPtrBase@UID2D1Factory@@@ATL@@QBEPAV?$_NoAddRefReleaseOnCComPtr@UID2D1Factory@@@1@XZ ; ATL::CComPtrBase<ID2D1Factory>::operator->
PUBLIC	??7?$CComPtrBase@UID2D1Factory@@@ATL@@QBE_NXZ	; ATL::CComPtrBase<ID2D1Factory>::operator!
PUBLIC	??0?$CComPtr@UID2D1Factory@@@ATL@@QAE@XZ	; ATL::CComPtr<ID2D1Factory>::CComPtr<ID2D1Factory>
PUBLIC	??1?$CComPtr@UID2D1Factory@@@ATL@@QAE@XZ	; ATL::CComPtr<ID2D1Factory>::~CComPtr<ID2D1Factory>
PUBLIC	?ToRGB@COLORPICK@@SAK_NU_D3DCOLORVALUE@@@Z	; COLORPICK::ToRGB
PUBLIC	?GetAValue@COLORPICK@@SAEK@Z			; COLORPICK::GetAValue
PUBLIC	?FromRGB@COLORPICK@@SA?AU_D3DCOLORVALUE@@K_N@Z	; COLORPICK::FromRGB
PUBLIC	?fromRGBtoHSL@COLORPICK@@QAEXQAM0@Z		; COLORPICK::fromRGBtoHSL
PUBLIC	?fromHSLtoRGB@COLORPICK@@QAEXQBMQAM@Z		; COLORPICK::fromHSLtoRGB
PUBLIC	?GetD2SolidBrush@COLORPICK@@SA?AV?$CComPtr@UID2D1SolidColorBrush@@@ATL@@PAUID2D1RenderTarget@@U_D3DCOLORVALUE@@@Z ; COLORPICK::GetD2SolidBrush
PUBLIC	?KeyDown@COLORPICK@@QAEXIJ_N00@Z		; COLORPICK::KeyDown
PUBLIC	?Wheel@COLORPICK@@QAEXIJ@Z			; COLORPICK::Wheel
PUBLIC	?LeftUp@COLORPICK@@QAEXIJ@Z			; COLORPICK::LeftUp
PUBLIC	?EndEdit@COLORPICK@@QAEX_N@Z			; COLORPICK::EndEdit
PUBLIC	?LeftDown@COLORPICK@@QAE_NIJ@Z			; COLORPICK::LeftDown
PUBLIC	?Redraw@COLORPICK@@QAEXXZ			; COLORPICK::Redraw
PUBLIC	?MouseMove@COLORPICK@@QAEXIJ@Z			; COLORPICK::MouseMove
PUBLIC	?RightDown@COLORPICK@@QAEXIJ@Z			; COLORPICK::RightDown
PUBLIC	?LeftDoubleClick@COLORPICK@@QAEXIJ@Z		; COLORPICK::LeftDoubleClick
PUBLIC	??0?$CComPtrBase@UIDWriteTextFormat@@@ATL@@IAE@XZ ; ATL::CComPtrBase<IDWriteTextFormat>::CComPtrBase<IDWriteTextFormat>
PUBLIC	??1?$CComPtrBase@UIDWriteTextFormat@@@ATL@@QAE@XZ ; ATL::CComPtrBase<IDWriteTextFormat>::~CComPtrBase<IDWriteTextFormat>
PUBLIC	??B?$CComPtrBase@UIDWriteTextFormat@@@ATL@@QBEPAUIDWriteTextFormat@@XZ ; ATL::CComPtrBase<IDWriteTextFormat>::operator IDWriteTextFormat *
PUBLIC	??I?$CComPtrBase@UIDWriteTextFormat@@@ATL@@QAEPAPAUIDWriteTextFormat@@XZ ; ATL::CComPtrBase<IDWriteTextFormat>::operator&
PUBLIC	??C?$CComPtrBase@UIDWriteTextFormat@@@ATL@@QBEPAV?$_NoAddRefReleaseOnCComPtr@UIDWriteTextFormat@@@1@XZ ; ATL::CComPtrBase<IDWriteTextFormat>::operator->
PUBLIC	??7?$CComPtrBase@UIDWriteTextFormat@@@ATL@@QBE_NXZ ; ATL::CComPtrBase<IDWriteTextFormat>::operator!
PUBLIC	??0?$CComPtr@UIDWriteTextFormat@@@ATL@@QAE@XZ	; ATL::CComPtr<IDWriteTextFormat>::CComPtr<IDWriteTextFormat>
PUBLIC	??1?$CComPtr@UIDWriteTextFormat@@@ATL@@QAE@XZ	; ATL::CComPtr<IDWriteTextFormat>::~CComPtr<IDWriteTextFormat>
PUBLIC	?CreateBrushes@COLORPICK@@QAEXPAUIDWriteFactory@@@Z ; COLORPICK::CreateBrushes
PUBLIC	?Paint@COLORPICK@@QAEXPAUID2D1Factory@@PAUIDWriteFactory@@PAUID2D1RenderTarget@@UtagRECT@@@Z ; COLORPICK::Paint
PUBLIC	?Paint@COLORPICK@@QAEXPAUID2D1Factory@@PAUIDWriteFactory@@PAUID2D1RenderTarget@@UD2D_RECT_F@@@Z ; COLORPICK::Paint
PUBLIC	??0PT@COLORPICK@@QAE@XZ				; COLORPICK::PT::PT
PUBLIC	??0?$allocator@UPT@COLORPICK@@@std@@QAE@XZ	; std::allocator<COLORPICK::PT>::allocator<COLORPICK::PT>
PUBLIC	?deallocate@?$allocator@UPT@COLORPICK@@@std@@QAEXQAUPT@COLORPICK@@I@Z ; std::allocator<COLORPICK::PT>::deallocate
PUBLIC	?allocate@?$allocator@UPT@COLORPICK@@@std@@QAEPAUPT@COLORPICK@@I@Z ; std::allocator<COLORPICK::PT>::allocate
PUBLIC	?max_size@?$_Default_allocator_traits@V?$allocator@UPT@COLORPICK@@@std@@@std@@SAIABV?$allocator@UPT@COLORPICK@@@2@@Z ; std::_Default_allocator_traits<std::allocator<COLORPICK::PT> >::max_size
PUBLIC	??0?$vector@UPT@COLORPICK@@V?$allocator@UPT@COLORPICK@@@std@@@std@@QAE@XZ ; std::vector<COLORPICK::PT,std::allocator<COLORPICK::PT> >::vector<COLORPICK::PT,std::allocator<COLORPICK::PT> >
PUBLIC	??1?$vector@UPT@COLORPICK@@V?$allocator@UPT@COLORPICK@@@std@@@std@@QAE@XZ ; std::vector<COLORPICK::PT,std::allocator<COLORPICK::PT> >::~vector<COLORPICK::PT,std::allocator<COLORPICK::PT> >
PUBLIC	?push_back@?$vector@UPT@COLORPICK@@V?$allocator@UPT@COLORPICK@@@std@@@std@@QAEXABUPT@COLORPICK@@@Z ; std::vector<COLORPICK::PT,std::allocator<COLORPICK::PT> >::push_back
PUBLIC	?_Reallocate_exactly@?$vector@UPT@COLORPICK@@V?$allocator@UPT@COLORPICK@@@std@@@std@@AAEXI@Z ; std::vector<COLORPICK::PT,std::allocator<COLORPICK::PT> >::_Reallocate_exactly
PUBLIC	?reserve@?$vector@UPT@COLORPICK@@V?$allocator@UPT@COLORPICK@@@std@@@std@@QAEXI@Z ; std::vector<COLORPICK::PT,std::allocator<COLORPICK::PT> >::reserve
PUBLIC	?clear@?$vector@UPT@COLORPICK@@V?$allocator@UPT@COLORPICK@@@std@@@std@@QAEXXZ ; std::vector<COLORPICK::PT,std::allocator<COLORPICK::PT> >::clear
PUBLIC	?_Unchecked_begin@?$vector@UPT@COLORPICK@@V?$allocator@UPT@COLORPICK@@@std@@@std@@QAEPAUPT@COLORPICK@@XZ ; std::vector<COLORPICK::PT,std::allocator<COLORPICK::PT> >::_Unchecked_begin
PUBLIC	?_Unchecked_end@?$vector@UPT@COLORPICK@@V?$allocator@UPT@COLORPICK@@@std@@@std@@QAEPAUPT@COLORPICK@@XZ ; std::vector<COLORPICK::PT,std::allocator<COLORPICK::PT> >::_Unchecked_end
PUBLIC	?empty@?$vector@UPT@COLORPICK@@V?$allocator@UPT@COLORPICK@@@std@@@std@@QBE_NXZ ; std::vector<COLORPICK::PT,std::allocator<COLORPICK::PT> >::empty
PUBLIC	?max_size@?$vector@UPT@COLORPICK@@V?$allocator@UPT@COLORPICK@@@std@@@std@@QBEIXZ ; std::vector<COLORPICK::PT,std::allocator<COLORPICK::PT> >::max_size
PUBLIC	?capacity@?$vector@UPT@COLORPICK@@V?$allocator@UPT@COLORPICK@@@std@@@std@@QBEIXZ ; std::vector<COLORPICK::PT,std::allocator<COLORPICK::PT> >::capacity
PUBLIC	?_Umove@?$vector@UPT@COLORPICK@@V?$allocator@UPT@COLORPICK@@@std@@@std@@AAEPAUPT@COLORPICK@@PAU34@00@Z ; std::vector<COLORPICK::PT,std::allocator<COLORPICK::PT> >::_Umove
PUBLIC	?_Umove_if_noexcept1@?$vector@UPT@COLORPICK@@V?$allocator@UPT@COLORPICK@@@std@@@std@@AAEXPAUPT@COLORPICK@@00U?$integral_constant@_N$00@2@@Z ; std::vector<COLORPICK::PT,std::allocator<COLORPICK::PT> >::_Umove_if_noexcept1
PUBLIC	?_Umove_if_noexcept@?$vector@UPT@COLORPICK@@V?$allocator@UPT@COLORPICK@@@std@@@std@@AAEXPAUPT@COLORPICK@@00@Z ; std::vector<COLORPICK::PT,std::allocator<COLORPICK::PT> >::_Umove_if_noexcept
PUBLIC	?_Destroy@?$vector@UPT@COLORPICK@@V?$allocator@UPT@COLORPICK@@@std@@@std@@AAEXPAUPT@COLORPICK@@0@Z ; std::vector<COLORPICK::PT,std::allocator<COLORPICK::PT> >::_Destroy
PUBLIC	?_Calculate_growth@?$vector@UPT@COLORPICK@@V?$allocator@UPT@COLORPICK@@@std@@@std@@ABEII@Z ; std::vector<COLORPICK::PT,std::allocator<COLORPICK::PT> >::_Calculate_growth
PUBLIC	?_Change_array@?$vector@UPT@COLORPICK@@V?$allocator@UPT@COLORPICK@@@std@@@std@@AAEXQAUPT@COLORPICK@@II@Z ; std::vector<COLORPICK::PT,std::allocator<COLORPICK::PT> >::_Change_array
PUBLIC	?_Tidy@?$vector@UPT@COLORPICK@@V?$allocator@UPT@COLORPICK@@@std@@@std@@AAEXXZ ; std::vector<COLORPICK::PT,std::allocator<COLORPICK::PT> >::_Tidy
PUBLIC	?_Xlength@?$vector@UPT@COLORPICK@@V?$allocator@UPT@COLORPICK@@@std@@@std@@CAXXZ ; std::vector<COLORPICK::PT,std::allocator<COLORPICK::PT> >::_Xlength
PUBLIC	?_Orphan_range@?$vector@UPT@COLORPICK@@V?$allocator@UPT@COLORPICK@@@std@@@std@@ABEXPAUPT@COLORPICK@@0@Z ; std::vector<COLORPICK::PT,std::allocator<COLORPICK::PT> >::_Orphan_range
PUBLIC	?_Getal@?$vector@UPT@COLORPICK@@V?$allocator@UPT@COLORPICK@@@std@@@std@@AAEAAV?$allocator@UPT@COLORPICK@@@2@XZ ; std::vector<COLORPICK::PT,std::allocator<COLORPICK::PT> >::_Getal
PUBLIC	?_Getal@?$vector@UPT@COLORPICK@@V?$allocator@UPT@COLORPICK@@@std@@@std@@ABEABV?$allocator@UPT@COLORPICK@@@2@XZ ; std::vector<COLORPICK::PT,std::allocator<COLORPICK::PT> >::_Getal
PUBLIC	??0?$_Vector_val@U?$_Simple_types@UPT@COLORPICK@@@std@@@std@@QAE@XZ ; std::_Vector_val<std::_Simple_types<COLORPICK::PT> >::_Vector_val<std::_Simple_types<COLORPICK::PT> >
PUBLIC	?_Get_first@?$_Compressed_pair@V?$allocator@UPT@COLORPICK@@@std@@V?$_Vector_val@U?$_Simple_types@UPT@COLORPICK@@@std@@@2@$00@std@@QAEAAV?$allocator@UPT@COLORPICK@@@2@XZ ; std::_Compressed_pair<std::allocator<COLORPICK::PT>,std::_Vector_val<std::_Simple_types<COLORPICK::PT> >,1>::_Get_first
PUBLIC	?_Get_first@?$_Compressed_pair@V?$allocator@UPT@COLORPICK@@@std@@V?$_Vector_val@U?$_Simple_types@UPT@COLORPICK@@@std@@@2@$00@std@@QBEABV?$allocator@UPT@COLORPICK@@@2@XZ ; std::_Compressed_pair<std::allocator<COLORPICK::PT>,std::_Vector_val<std::_Simple_types<COLORPICK::PT> >,1>::_Get_first
PUBLIC	?Main_DP@COLORPICK@@QAGJPAUHWND__@@IIJ@Z	; COLORPICK::Main_DP
PUBLIC	?Main2_DP@COLORPICK@@SGJPAUHWND__@@IIJ@Z	; COLORPICK::Main2_DP
PUBLIC	?CenterWindow@COLORPICK@@QAEXPAUtagRECT@@@Z	; COLORPICK::CenterWindow
PUBLIC	?Show@COLORPICK@@QAEJPAUHWND__@@AAU_D3DCOLORVALUE@@PAUCOLORPICKOPT@@@Z ; COLORPICK::Show
PUBLIC	??0COLORPICK@@QAE@XZ				; COLORPICK::COLORPICK
PUBLIC	??1COLORPICK@@QAE@XZ				; COLORPICK::~COLORPICK
PUBLIC	?__autoclassinit2@COLORPICK@@QAEXI@Z		; COLORPICK::__autoclassinit2
PUBLIC	??$max@M@std@@YAABMABM0@Z			; std::max<float>
PUBLIC	??$min@M@std@@YAABMABM0@Z			; std::min<float>
PUBLIC	??0?$CComPtrBase@UID2D1SolidColorBrush@@@ATL@@IAE@XZ ; ATL::CComPtrBase<ID2D1SolidColorBrush>::CComPtrBase<ID2D1SolidColorBrush>
PUBLIC	??0?$CComPtrBase@UID2D1SolidColorBrush@@@ATL@@IAE@PAUID2D1SolidColorBrush@@@Z ; ATL::CComPtrBase<ID2D1SolidColorBrush>::CComPtrBase<ID2D1SolidColorBrush>
PUBLIC	?Swap@?$CComPtrBase@UID2D1SolidColorBrush@@@ATL@@IAEXAAV12@@Z ; ATL::CComPtrBase<ID2D1SolidColorBrush>::Swap
PUBLIC	??1?$CComPtrBase@UID2D1SolidColorBrush@@@ATL@@QAE@XZ ; ATL::CComPtrBase<ID2D1SolidColorBrush>::~CComPtrBase<ID2D1SolidColorBrush>
PUBLIC	??B?$CComPtrBase@UID2D1SolidColorBrush@@@ATL@@QBEPAUID2D1SolidColorBrush@@XZ ; ATL::CComPtrBase<ID2D1SolidColorBrush>::operator ID2D1SolidColorBrush *
PUBLIC	??I?$CComPtrBase@UID2D1SolidColorBrush@@@ATL@@QAEPAPAUID2D1SolidColorBrush@@XZ ; ATL::CComPtrBase<ID2D1SolidColorBrush>::operator&
PUBLIC	??C?$CComPtrBase@UID2D1SolidColorBrush@@@ATL@@QBEPAV?$_NoAddRefReleaseOnCComPtr@UID2D1SolidColorBrush@@@1@XZ ; ATL::CComPtrBase<ID2D1SolidColorBrush>::operator->
PUBLIC	??0?$CComPtr@UID2D1SolidColorBrush@@@ATL@@QAE@PAUID2D1SolidColorBrush@@@Z ; ATL::CComPtr<ID2D1SolidColorBrush>::CComPtr<ID2D1SolidColorBrush>
PUBLIC	??0?$CComPtr@UID2D1SolidColorBrush@@@ATL@@QAE@$$QAV01@@Z ; ATL::CComPtr<ID2D1SolidColorBrush>::CComPtr<ID2D1SolidColorBrush>
PUBLIC	??1?$CComPtr@UID2D1SolidColorBrush@@@ATL@@QAE@XZ ; ATL::CComPtr<ID2D1SolidColorBrush>::~CComPtr<ID2D1SolidColorBrush>
PUBLIC	?__autoclassinit2@?$CComPtr@UID2D1SolidColorBrush@@@ATL@@QAEXI@Z ; ATL::CComPtr<ID2D1SolidColorBrush>::__autoclassinit2
PUBLIC	??$InRect@M@COLORPICK@@QAE_NAAUD2D_RECT_F@@MM@Z	; COLORPICK::InRect<float>
PUBLIC	??0?$CComPtrBase@UID2D1LinearGradientBrush@@@ATL@@IAE@XZ ; ATL::CComPtrBase<ID2D1LinearGradientBrush>::CComPtrBase<ID2D1LinearGradientBrush>
PUBLIC	??0?$CComPtrBase@UID2D1LinearGradientBrush@@@ATL@@IAE@PAUID2D1LinearGradientBrush@@@Z ; ATL::CComPtrBase<ID2D1LinearGradientBrush>::CComPtrBase<ID2D1LinearGradientBrush>
PUBLIC	?Swap@?$CComPtrBase@UID2D1LinearGradientBrush@@@ATL@@IAEXAAV12@@Z ; ATL::CComPtrBase<ID2D1LinearGradientBrush>::Swap
PUBLIC	??1?$CComPtrBase@UID2D1LinearGradientBrush@@@ATL@@QAE@XZ ; ATL::CComPtrBase<ID2D1LinearGradientBrush>::~CComPtrBase<ID2D1LinearGradientBrush>
PUBLIC	??B?$CComPtrBase@UID2D1LinearGradientBrush@@@ATL@@QBEPAUID2D1LinearGradientBrush@@XZ ; ATL::CComPtrBase<ID2D1LinearGradientBrush>::operator ID2D1LinearGradientBrush *
PUBLIC	??I?$CComPtrBase@UID2D1LinearGradientBrush@@@ATL@@QAEPAPAUID2D1LinearGradientBrush@@XZ ; ATL::CComPtrBase<ID2D1LinearGradientBrush>::operator&
PUBLIC	??0?$CComPtr@UID2D1LinearGradientBrush@@@ATL@@QAE@XZ ; ATL::CComPtr<ID2D1LinearGradientBrush>::CComPtr<ID2D1LinearGradientBrush>
PUBLIC	??0?$CComPtr@UID2D1LinearGradientBrush@@@ATL@@QAE@PAUID2D1LinearGradientBrush@@@Z ; ATL::CComPtr<ID2D1LinearGradientBrush>::CComPtr<ID2D1LinearGradientBrush>
PUBLIC	??4?$CComPtr@UID2D1LinearGradientBrush@@@ATL@@QAEPAUID2D1LinearGradientBrush@@PAU2@@Z ; ATL::CComPtr<ID2D1LinearGradientBrush>::operator=
PUBLIC	??1?$CComPtr@UID2D1LinearGradientBrush@@@ATL@@QAE@XZ ; ATL::CComPtr<ID2D1LinearGradientBrush>::~CComPtr<ID2D1LinearGradientBrush>
PUBLIC	?__autoclassinit2@?$CComPtr@UID2D1LinearGradientBrush@@@ATL@@QAEXI@Z ; ATL::CComPtr<ID2D1LinearGradientBrush>::__autoclassinit2
PUBLIC	??0?$CComPtrBase@UID2D1GradientStopCollection@@@ATL@@IAE@PAUID2D1GradientStopCollection@@@Z ; ATL::CComPtrBase<ID2D1GradientStopCollection>::CComPtrBase<ID2D1GradientStopCollection>
PUBLIC	?Swap@?$CComPtrBase@UID2D1GradientStopCollection@@@ATL@@IAEXAAV12@@Z ; ATL::CComPtrBase<ID2D1GradientStopCollection>::Swap
PUBLIC	??1?$CComPtrBase@UID2D1GradientStopCollection@@@ATL@@QAE@XZ ; ATL::CComPtrBase<ID2D1GradientStopCollection>::~CComPtrBase<ID2D1GradientStopCollection>
PUBLIC	??B?$CComPtrBase@UID2D1GradientStopCollection@@@ATL@@QBEPAUID2D1GradientStopCollection@@XZ ; ATL::CComPtrBase<ID2D1GradientStopCollection>::operator ID2D1GradientStopCollection *
PUBLIC	??I?$CComPtrBase@UID2D1GradientStopCollection@@@ATL@@QAEPAPAUID2D1GradientStopCollection@@XZ ; ATL::CComPtrBase<ID2D1GradientStopCollection>::operator&
PUBLIC	??0?$CComPtr@UID2D1GradientStopCollection@@@ATL@@QAE@PAUID2D1GradientStopCollection@@@Z ; ATL::CComPtr<ID2D1GradientStopCollection>::CComPtr<ID2D1GradientStopCollection>
PUBLIC	??4?$CComPtr@UID2D1GradientStopCollection@@@ATL@@QAEPAUID2D1GradientStopCollection@@PAU2@@Z ; ATL::CComPtr<ID2D1GradientStopCollection>::operator=
PUBLIC	??1?$CComPtr@UID2D1GradientStopCollection@@@ATL@@QAE@XZ ; ATL::CComPtr<ID2D1GradientStopCollection>::~CComPtr<ID2D1GradientStopCollection>
PUBLIC	?__autoclassinit2@?$CComPtr@UID2D1GradientStopCollection@@@ATL@@QAEXI@Z ; ATL::CComPtr<ID2D1GradientStopCollection>::__autoclassinit2
PUBLIC	??0?$allocator@UD2D1_GRADIENT_STOP@@@std@@QAE@XZ ; std::allocator<D2D1_GRADIENT_STOP>::allocator<D2D1_GRADIENT_STOP>
PUBLIC	?deallocate@?$allocator@UD2D1_GRADIENT_STOP@@@std@@QAEXQAUD2D1_GRADIENT_STOP@@I@Z ; std::allocator<D2D1_GRADIENT_STOP>::deallocate
PUBLIC	?allocate@?$allocator@UD2D1_GRADIENT_STOP@@@std@@QAEPAUD2D1_GRADIENT_STOP@@I@Z ; std::allocator<D2D1_GRADIENT_STOP>::allocate
PUBLIC	?max_size@?$_Default_allocator_traits@V?$allocator@UD2D1_GRADIENT_STOP@@@std@@@std@@SAIABV?$allocator@UD2D1_GRADIENT_STOP@@@2@@Z ; std::_Default_allocator_traits<std::allocator<D2D1_GRADIENT_STOP> >::max_size
PUBLIC	??0?$vector@UD2D1_GRADIENT_STOP@@V?$allocator@UD2D1_GRADIENT_STOP@@@std@@@std@@QAE@IABV?$allocator@UD2D1_GRADIENT_STOP@@@1@@Z ; std::vector<D2D1_GRADIENT_STOP,std::allocator<D2D1_GRADIENT_STOP> >::vector<D2D1_GRADIENT_STOP,std::allocator<D2D1_GRADIENT_STOP> >
PUBLIC	??1?$vector@UD2D1_GRADIENT_STOP@@V?$allocator@UD2D1_GRADIENT_STOP@@@std@@@std@@QAE@XZ ; std::vector<D2D1_GRADIENT_STOP,std::allocator<D2D1_GRADIENT_STOP> >::~vector<D2D1_GRADIENT_STOP,std::allocator<D2D1_GRADIENT_STOP> >
PUBLIC	?data@?$vector@UD2D1_GRADIENT_STOP@@V?$allocator@UD2D1_GRADIENT_STOP@@@std@@@std@@QAEPAUD2D1_GRADIENT_STOP@@XZ ; std::vector<D2D1_GRADIENT_STOP,std::allocator<D2D1_GRADIENT_STOP> >::data
PUBLIC	?max_size@?$vector@UD2D1_GRADIENT_STOP@@V?$allocator@UD2D1_GRADIENT_STOP@@@std@@@std@@QBEIXZ ; std::vector<D2D1_GRADIENT_STOP,std::allocator<D2D1_GRADIENT_STOP> >::max_size
PUBLIC	??A?$vector@UD2D1_GRADIENT_STOP@@V?$allocator@UD2D1_GRADIENT_STOP@@@std@@@std@@QAEAAUD2D1_GRADIENT_STOP@@I@Z ; std::vector<D2D1_GRADIENT_STOP,std::allocator<D2D1_GRADIENT_STOP> >::operator[]
PUBLIC	?_Ufill@?$vector@UD2D1_GRADIENT_STOP@@V?$allocator@UD2D1_GRADIENT_STOP@@@std@@@std@@AAEPAUD2D1_GRADIENT_STOP@@PAU3@IU_Value_init_tag@2@@Z ; std::vector<D2D1_GRADIENT_STOP,std::allocator<D2D1_GRADIENT_STOP> >::_Ufill
PUBLIC	?_Destroy@?$vector@UD2D1_GRADIENT_STOP@@V?$allocator@UD2D1_GRADIENT_STOP@@@std@@@std@@AAEXPAUD2D1_GRADIENT_STOP@@0@Z ; std::vector<D2D1_GRADIENT_STOP,std::allocator<D2D1_GRADIENT_STOP> >::_Destroy
PUBLIC	?_Buy_raw@?$vector@UD2D1_GRADIENT_STOP@@V?$allocator@UD2D1_GRADIENT_STOP@@@std@@@std@@AAEXI@Z ; std::vector<D2D1_GRADIENT_STOP,std::allocator<D2D1_GRADIENT_STOP> >::_Buy_raw
PUBLIC	?_Buy_nonzero@?$vector@UD2D1_GRADIENT_STOP@@V?$allocator@UD2D1_GRADIENT_STOP@@@std@@@std@@AAEXI@Z ; std::vector<D2D1_GRADIENT_STOP,std::allocator<D2D1_GRADIENT_STOP> >::_Buy_nonzero
PUBLIC	?_Tidy@?$vector@UD2D1_GRADIENT_STOP@@V?$allocator@UD2D1_GRADIENT_STOP@@@std@@@std@@AAEXXZ ; std::vector<D2D1_GRADIENT_STOP,std::allocator<D2D1_GRADIENT_STOP> >::_Tidy
PUBLIC	?_Xlength@?$vector@UD2D1_GRADIENT_STOP@@V?$allocator@UD2D1_GRADIENT_STOP@@@std@@@std@@CAXXZ ; std::vector<D2D1_GRADIENT_STOP,std::allocator<D2D1_GRADIENT_STOP> >::_Xlength
PUBLIC	?_Getal@?$vector@UD2D1_GRADIENT_STOP@@V?$allocator@UD2D1_GRADIENT_STOP@@@std@@@std@@AAEAAV?$allocator@UD2D1_GRADIENT_STOP@@@2@XZ ; std::vector<D2D1_GRADIENT_STOP,std::allocator<D2D1_GRADIENT_STOP> >::_Getal
PUBLIC	?_Getal@?$vector@UD2D1_GRADIENT_STOP@@V?$allocator@UD2D1_GRADIENT_STOP@@@std@@@std@@ABEABV?$allocator@UD2D1_GRADIENT_STOP@@@2@XZ ; std::vector<D2D1_GRADIENT_STOP,std::allocator<D2D1_GRADIENT_STOP> >::_Getal
PUBLIC	??0?$_Vector_val@U?$_Simple_types@UD2D1_GRADIENT_STOP@@@std@@@std@@QAE@XZ ; std::_Vector_val<std::_Simple_types<D2D1_GRADIENT_STOP> >::_Vector_val<std::_Simple_types<D2D1_GRADIENT_STOP> >
PUBLIC	?_Get_first@?$_Compressed_pair@V?$allocator@UD2D1_GRADIENT_STOP@@@std@@V?$_Vector_val@U?$_Simple_types@UD2D1_GRADIENT_STOP@@@std@@@2@$00@std@@QAEAAV?$allocator@UD2D1_GRADIENT_STOP@@@2@XZ ; std::_Compressed_pair<std::allocator<D2D1_GRADIENT_STOP>,std::_Vector_val<std::_Simple_types<D2D1_GRADIENT_STOP> >,1>::_Get_first
PUBLIC	?_Get_first@?$_Compressed_pair@V?$allocator@UD2D1_GRADIENT_STOP@@@std@@V?$_Vector_val@U?$_Simple_types@UD2D1_GRADIENT_STOP@@@std@@@2@$00@std@@QBEABV?$allocator@UD2D1_GRADIENT_STOP@@@2@XZ ; std::_Compressed_pair<std::allocator<D2D1_GRADIENT_STOP>,std::_Vector_val<std::_Simple_types<D2D1_GRADIENT_STOP> >,1>::_Get_first
PUBLIC	?__autoclassinit2@?$vector@UD2D1_GRADIENT_STOP@@V?$allocator@UD2D1_GRADIENT_STOP@@@std@@@std@@QAEXI@Z ; std::vector<D2D1_GRADIENT_STOP,std::allocator<D2D1_GRADIENT_STOP> >::__autoclassinit2
PUBLIC	??$D2D1CreateFactory@UID2D1Factory@@@@YAJW4D2D1_FACTORY_TYPE@@PAPAUID2D1Factory@@@Z ; D2D1CreateFactory<ID2D1Factory>
PUBLIC	??0DemoApp@@QAE@XZ				; DemoApp::DemoApp
PUBLIC	??1DemoApp@@QAE@XZ				; DemoApp::~DemoApp
PUBLIC	?Initialize@DemoApp@@QAEJXZ			; DemoApp::Initialize
PUBLIC	?RunMessageLoop@DemoApp@@QAEXXZ			; DemoApp::RunMessageLoop
PUBLIC	?CreateDeviceIndependentResources@DemoApp@@AAEJXZ ; DemoApp::CreateDeviceIndependentResources
PUBLIC	?CreateDeviceResources@DemoApp@@AAEJXZ		; DemoApp::CreateDeviceResources
PUBLIC	?DiscardDeviceResources@DemoApp@@AAEXXZ		; DemoApp::DiscardDeviceResources
PUBLIC	?OnRender@DemoApp@@AAEJXZ			; DemoApp::OnRender
PUBLIC	?LoadBitmapFromFile@DemoApp@@AAEJPB_WIIPAPAUID2D1Bitmap@@@Z ; DemoApp::LoadBitmapFromFile
PUBLIC	?OnResize@DemoApp@@AAEXII@Z			; DemoApp::OnResize
PUBLIC	?WndProc@DemoApp@@CGJPAUHWND__@@IIJ@Z		; DemoApp::WndProc
PUBLIC	?__autoclassinit2@DemoApp@@QAEXI@Z		; DemoApp::__autoclassinit2
PUBLIC	??$SafeRelease@UID2D1Factory@@@@YAXPAPAUID2D1Factory@@@Z ; SafeRelease<ID2D1Factory>
PUBLIC	??$SafeRelease@UID2D1HwndRenderTarget@@@@YAXPAPAUID2D1HwndRenderTarget@@@Z ; SafeRelease<ID2D1HwndRenderTarget>
PUBLIC	??$SafeRelease@UID2D1SolidColorBrush@@@@YAXPAPAUID2D1SolidColorBrush@@@Z ; SafeRelease<ID2D1SolidColorBrush>
PUBLIC	??$SafeRelease@UIWICBitmapDecoder@@@@YAXPAPAUIWICBitmapDecoder@@@Z ; SafeRelease<IWICBitmapDecoder>
PUBLIC	??$SafeRelease@UIWICBitmapFrameDecode@@@@YAXPAPAUIWICBitmapFrameDecode@@@Z ; SafeRelease<IWICBitmapFrameDecode>
PUBLIC	??$SafeRelease@UIWICStream@@@@YAXPAPAUIWICStream@@@Z ; SafeRelease<IWICStream>
PUBLIC	??$SafeRelease@UIWICFormatConverter@@@@YAXPAPAUIWICFormatConverter@@@Z ; SafeRelease<IWICFormatConverter>
PUBLIC	??$SafeRelease@UIWICBitmapScaler@@@@YAXPAPAUIWICBitmapScaler@@@Z ; SafeRelease<IWICBitmapScaler>
PUBLIC	??$_Unfancy_maybe_null@UD2D1_GRADIENT_STOP@@@std@@YAPAUD2D1_GRADIENT_STOP@@PAU1@@Z ; std::_Unfancy_maybe_null<D2D1_GRADIENT_STOP>
PUBLIC	?allocate@?$allocator@U_Container_proxy@std@@@std@@QAEPAU_Container_proxy@2@I@Z ; std::allocator<std::_Container_proxy>::allocate
PUBLIC	??$?0UD2D1_GRADIENT_STOP@@@?$allocator@U_Container_proxy@std@@@std@@QAE@ABV?$allocator@UD2D1_GRADIENT_STOP@@@1@@Z ; std::allocator<std::_Container_proxy>::allocator<std::_Container_proxy><D2D1_GRADIENT_STOP>
PUBLIC	??$exchange@PAU_Container_proxy@std@@$$T@std@@YAPAU_Container_proxy@0@AAPAU10@$$QA$$T@Z ; std::exchange<std::_Container_proxy *,std::nullptr_t>
PUBLIC	??$_Delete_plain_internal@V?$allocator@U_Container_proxy@std@@@std@@@std@@YAXAAV?$allocator@U_Container_proxy@std@@@0@QAU_Container_proxy@0@@Z ; std::_Delete_plain_internal<std::allocator<std::_Container_proxy> >
PUBLIC	??$?0ABV?$allocator@UD2D1_GRADIENT_STOP@@@std@@$$V@?$_Compressed_pair@V?$allocator@UD2D1_GRADIENT_STOP@@@std@@V?$_Vector_val@U?$_Simple_types@UD2D1_GRADIENT_STOP@@@std@@@2@$00@std@@QAE@U_One_then_variadic_args_t@1@ABV?$allocator@UD2D1_GRADIENT_STOP@@@1@@Z ; std::_Compressed_pair<std::allocator<D2D1_GRADIENT_STOP>,std::_Vector_val<std::_Simple_types<D2D1_GRADIENT_STOP> >,1>::_Compressed_pair<std::allocator<D2D1_GRADIENT_STOP>,std::_Vector_val<std::_Simple_types<D2D1_GRADIENT_STOP> >,1><std::allocator<D2D1_GRADIENT_STOP> const &>
PUBLIC	??$_Construct_n_copies_of_ty@U_Value_init_tag@std@@@?$vector@UD2D1_GRADIENT_STOP@@V?$allocator@UD2D1_GRADIENT_STOP@@@std@@@std@@AAEXIABU_Value_init_tag@1@@Z ; std::vector<D2D1_GRADIENT_STOP,std::allocator<D2D1_GRADIENT_STOP> >::_Construct_n_copies_of_ty<std::_Value_init_tag>
PUBLIC	??$emplace_back@ABUPT@COLORPICK@@@?$vector@UPT@COLORPICK@@V?$allocator@UPT@COLORPICK@@@std@@@std@@QAE@ABUPT@COLORPICK@@@Z ; std::vector<COLORPICK::PT,std::allocator<COLORPICK::PT> >::emplace_back<COLORPICK::PT const &>
PUBLIC	??$forward@ABUPT@COLORPICK@@@std@@YAABUPT@COLORPICK@@ABU12@@Z ; std::forward<COLORPICK::PT const &>
PUBLIC	??$_Emplace_back_with_unused_capacity@ABUPT@COLORPICK@@@?$vector@UPT@COLORPICK@@V?$allocator@UPT@COLORPICK@@@std@@@std@@AAE@ABUPT@COLORPICK@@@Z ; std::vector<COLORPICK::PT,std::allocator<COLORPICK::PT> >::_Emplace_back_with_unused_capacity<COLORPICK::PT const &>
PUBLIC	??$_Unfancy@UPT@COLORPICK@@@std@@YAPAUPT@COLORPICK@@PAU12@@Z ; std::_Unfancy<COLORPICK::PT>
PUBLIC	??$construct@UPT@COLORPICK@@ABU12@@?$_Default_allocator_traits@V?$allocator@UPT@COLORPICK@@@std@@@std@@SAXAAV?$allocator@UPT@COLORPICK@@@1@QAUPT@COLORPICK@@ABU34@@Z ; std::_Default_allocator_traits<std::allocator<COLORPICK::PT> >::construct<COLORPICK::PT,COLORPICK::PT const &>
PUBLIC	??$_Emplace_reallocate@ABUPT@COLORPICK@@@?$vector@UPT@COLORPICK@@V?$allocator@UPT@COLORPICK@@@std@@@std@@QAEPAUPT@COLORPICK@@QAU23@ABU23@@Z ; std::vector<COLORPICK::PT,std::allocator<COLORPICK::PT> >::_Emplace_reallocate<COLORPICK::PT const &>
PUBLIC	??$?0UPT@COLORPICK@@@?$allocator@U_Container_proxy@std@@@std@@QAE@ABV?$allocator@UPT@COLORPICK@@@1@@Z ; std::allocator<std::_Container_proxy>::allocator<std::_Container_proxy><COLORPICK::PT>
PUBLIC	??$?0$$V@?$_Compressed_pair@V?$allocator@UPT@COLORPICK@@@std@@V?$_Vector_val@U?$_Simple_types@UPT@COLORPICK@@@std@@@2@$00@std@@QAE@U_Zero_then_variadic_args_t@1@@Z ; std::_Compressed_pair<std::allocator<COLORPICK::PT>,std::_Vector_val<std::_Simple_types<COLORPICK::PT> >,1>::_Compressed_pair<std::allocator<COLORPICK::PT>,std::_Vector_val<std::_Simple_types<COLORPICK::PT> >,1><>
PUBLIC	??$_Alloc_proxy@V?$allocator@U_Container_proxy@std@@@std@@@_Container_base12@std@@QAEX$$QAV?$allocator@U_Container_proxy@std@@@1@@Z ; std::_Container_base12::_Alloc_proxy<std::allocator<std::_Container_proxy> >
PUBLIC	??$addressof@V?$basic_filebuf@DU?$char_traits@D@std@@@std@@@std@@YAPAV?$basic_filebuf@DU?$char_traits@D@std@@@0@AAV10@@Z ; std::addressof<std::basic_filebuf<char,std::char_traits<char> > >
PUBLIC	??$use_facet@V?$codecvt@_WDU_Mbstatet@@@std@@@std@@YAABV?$codecvt@_WDU_Mbstatet@@@0@ABVlocale@0@@Z ; std::use_facet<std::codecvt<wchar_t,char,_Mbstatet> >
PUBLIC	??$addressof@V?$basic_filebuf@_WU?$char_traits@_W@std@@@std@@@std@@YAPAV?$basic_filebuf@_WU?$char_traits@_W@std@@@0@AAV10@@Z ; std::addressof<std::basic_filebuf<wchar_t,std::char_traits<wchar_t> > >
PUBLIC	??$use_facet@V?$codecvt@DDU_Mbstatet@@@std@@@std@@YAABV?$codecvt@DDU_Mbstatet@@@0@ABVlocale@0@@Z ; std::use_facet<std::codecvt<char,char,_Mbstatet> >
PUBLIC	??$min@I@std@@YAABIABI0@Z			; std::min<unsigned int>
PUBLIC	??$addressof@V?$basic_stringbuf@DU?$char_traits@D@std@@V?$allocator@D@2@@std@@@std@@YAPAV?$basic_stringbuf@DU?$char_traits@D@std@@V?$allocator@D@2@@0@AAV10@@Z ; std::addressof<std::basic_stringbuf<char,std::char_traits<char>,std::allocator<char> > >
PUBLIC	??$max@PAD@std@@YAABQADABQAD0@Z			; std::max<char *>
PUBLIC	??$_Unfancy@D@std@@YAPADPAD@Z			; std::_Unfancy<char>
PUBLIC	?pointer_to@?$pointer_traits@PAD@std@@SAPADAAD@Z ; std::pointer_traits<char *>::pointer_to
PUBLIC	??$move@AAV?$basic_string@_WU?$char_traits@_W@std@@V?$allocator@_W@2@@std@@@std@@YA$$QAV?$basic_string@_WU?$char_traits@_W@std@@V?$allocator@_W@2@@0@AAV10@@Z ; std::move<std::basic_string<wchar_t,std::char_traits<wchar_t>,std::allocator<wchar_t> > &>
PUBLIC	??$move@AAV?$basic_string@DU?$char_traits@D@std@@V?$allocator@D@2@@std@@@std@@YA$$QAV?$basic_string@DU?$char_traits@D@std@@V?$allocator@D@2@@0@AAV10@@Z ; std::move<std::basic_string<char,std::char_traits<char>,std::allocator<char> > &>
PUBLIC	??0?$_Container_proxy_ptr12@V?$allocator@U_Container_proxy@std@@@std@@@std@@QAE@AAV?$allocator@U_Container_proxy@std@@@1@AAU_Container_base12@1@@Z ; std::_Container_proxy_ptr12<std::allocator<std::_Container_proxy> >::_Container_proxy_ptr12<std::allocator<std::_Container_proxy> >
PUBLIC	??1?$_Container_proxy_ptr12@V?$allocator@U_Container_proxy@std@@@std@@@std@@QAE@XZ ; std::_Container_proxy_ptr12<std::allocator<std::_Container_proxy> >::~_Container_proxy_ptr12<std::allocator<std::_Container_proxy> >
PUBLIC	??$?0_W@?$allocator@U_Container_proxy@std@@@std@@QAE@ABV?$allocator@_W@1@@Z ; std::allocator<std::_Container_proxy>::allocator<std::_Container_proxy><wchar_t>
PUBLIC	??$move@AAV?$allocator@_W@std@@@std@@YA$$QAV?$allocator@_W@0@AAV10@@Z ; std::move<std::allocator<wchar_t> &>
PUBLIC	??$?0V?$allocator@_W@std@@$$V@?$_Compressed_pair@V?$allocator@_W@std@@V?$_String_val@U?$_Simple_types@_W@std@@@2@$00@std@@QAE@U_One_then_variadic_args_t@1@$$QAV?$allocator@_W@1@@Z ; std::_Compressed_pair<std::allocator<wchar_t>,std::_String_val<std::_Simple_types<wchar_t> >,1>::_Compressed_pair<std::allocator<wchar_t>,std::_String_val<std::_Simple_types<wchar_t> >,1><std::allocator<wchar_t> >
PUBLIC	??$?0$$V@?$_Compressed_pair@V?$allocator@_W@std@@V?$_String_val@U?$_Simple_types@_W@std@@@2@$00@std@@QAE@U_Zero_then_variadic_args_t@1@@Z ; std::_Compressed_pair<std::allocator<wchar_t>,std::_String_val<std::_Simple_types<wchar_t> >,1>::_Compressed_pair<std::allocator<wchar_t>,std::_String_val<std::_Simple_types<wchar_t> >,1><>
PUBLIC	??$addressof@$$CBV?$basic_string@DU?$char_traits@D@std@@V?$allocator@D@2@@std@@@std@@YAPBV?$basic_string@DU?$char_traits@D@std@@V?$allocator@D@2@@0@ABV10@@Z ; std::addressof<std::basic_string<char,std::char_traits<char>,std::allocator<char> > const >
PUBLIC	??$?0D@?$allocator@U_Container_proxy@std@@@std@@QAE@ABV?$allocator@D@1@@Z ; std::allocator<std::_Container_proxy>::allocator<std::_Container_proxy><char>
PUBLIC	??$addressof@V?$basic_string@DU?$char_traits@D@std@@V?$allocator@D@2@@std@@@std@@YAPAV?$basic_string@DU?$char_traits@D@std@@V?$allocator@D@2@@0@AAV10@@Z ; std::addressof<std::basic_string<char,std::char_traits<char>,std::allocator<char> > >
PUBLIC	??$move@AAV?$allocator@D@std@@@std@@YA$$QAV?$allocator@D@0@AAV10@@Z ; std::move<std::allocator<char> &>
PUBLIC	??$?0V?$allocator@D@std@@$$V@?$_Compressed_pair@V?$allocator@D@std@@V?$_String_val@U?$_Simple_types@D@std@@@2@$00@std@@QAE@U_One_then_variadic_args_t@1@$$QAV?$allocator@D@1@@Z ; std::_Compressed_pair<std::allocator<char>,std::_String_val<std::_Simple_types<char> >,1>::_Compressed_pair<std::allocator<char>,std::_String_val<std::_Simple_types<char> >,1><std::allocator<char> >
PUBLIC	??$?0$$V@?$_Compressed_pair@V?$allocator@D@std@@V?$_String_val@U?$_Simple_types@D@std@@@2@$00@std@@QAE@U_Zero_then_variadic_args_t@1@@Z ; std::_Compressed_pair<std::allocator<char>,std::_String_val<std::_Simple_types<char> >,1>::_Compressed_pair<std::allocator<char>,std::_String_val<std::_Simple_types<char> >,1><>
PUBLIC	??$_Unfancy@U_Container_proxy@std@@@std@@YAPAU_Container_proxy@0@PAU10@@Z ; std::_Unfancy<std::_Container_proxy>
PUBLIC	??$addressof@D@std@@YAPADAAD@Z			; std::addressof<char>
PUBLIC	??$_Destroy_range@V?$allocator@UPT@COLORPICK@@@std@@@std@@YAXPAUPT@COLORPICK@@QAU12@AAV?$allocator@UPT@COLORPICK@@@0@@Z ; std::_Destroy_range<std::allocator<COLORPICK::PT> >
PUBLIC	??$addressof@$$CBV?$codecvt@_WDU_Mbstatet@@@std@@@std@@YAPBV?$codecvt@_WDU_Mbstatet@@@0@ABV10@@Z ; std::addressof<std::codecvt<wchar_t,char,_Mbstatet> const >
PUBLIC	??$addressof@$$CBV?$codecvt@DDU_Mbstatet@@@std@@@std@@YAPBV?$codecvt@DDU_Mbstatet@@@0@ABV10@@Z ; std::addressof<std::codecvt<char,char,_Mbstatet> const >
PUBLIC	??$_Destroy_in_place@PA_W@std@@YAXAAPA_W@Z	; std::_Destroy_in_place<wchar_t *>
PUBLIC	??R<lambda_03628ca18370b1f44a99b655e704819b>@@QBEXQA_WIQB_W@Z ; <lambda_03628ca18370b1f44a99b655e704819b>::operator()
PUBLIC	??$_Reallocate_for@V<lambda_03628ca18370b1f44a99b655e704819b>@@PB_W@?$basic_string@_WU?$char_traits@_W@std@@V?$allocator@_W@2@@std@@AAEAAV01@IV<lambda_03628ca18370b1f44a99b655e704819b>@@PB_W@Z ; std::basic_string<wchar_t,std::char_traits<wchar_t>,std::allocator<wchar_t> >::_Reallocate_for<<lambda_03628ca18370b1f44a99b655e704819b>,wchar_t const *>
PUBLIC	??$_Unfancy@_W@std@@YAPA_WPA_W@Z		; std::_Unfancy<wchar_t>
PUBLIC	??$_Destroy_in_place@PAD@std@@YAXAAPAD@Z	; std::_Destroy_in_place<char *>
PUBLIC	??R<lambda_15711c68e099a15a58f4d77303cb286d>@@QBEXQADQBDID@Z ; <lambda_15711c68e099a15a58f4d77303cb286d>::operator()
PUBLIC	??$_Reallocate_grow_by@V<lambda_15711c68e099a15a58f4d77303cb286d>@@D@?$basic_string@DU?$char_traits@D@std@@V?$allocator@D@2@@std@@AAEAAV01@IV<lambda_15711c68e099a15a58f4d77303cb286d>@@D@Z ; std::basic_string<char,std::char_traits<char>,std::allocator<char> >::_Reallocate_grow_by<<lambda_15711c68e099a15a58f4d77303cb286d>,char>
PUBLIC	??R<lambda_9366063389c5f42a00a5088cf24e69de>@@QBEXQADIQBD@Z ; <lambda_9366063389c5f42a00a5088cf24e69de>::operator()
PUBLIC	??$_Reallocate_for@V<lambda_9366063389c5f42a00a5088cf24e69de>@@PBD@?$basic_string@DU?$char_traits@D@std@@V?$allocator@D@2@@std@@AAEAAV01@IV<lambda_9366063389c5f42a00a5088cf24e69de>@@PBD@Z ; std::basic_string<char,std::char_traits<char>,std::allocator<char> >::_Reallocate_for<<lambda_9366063389c5f42a00a5088cf24e69de>,char const *>
PUBLIC	??R<lambda_ab246b20b9526e2ef7792587e4298a77>@@QBEXQADQBDI1I@Z ; <lambda_ab246b20b9526e2ef7792587e4298a77>::operator()
PUBLIC	??$_Reallocate_grow_by@V<lambda_ab246b20b9526e2ef7792587e4298a77>@@PBDI@?$basic_string@DU?$char_traits@D@std@@V?$allocator@D@2@@std@@AAEAAV01@IV<lambda_ab246b20b9526e2ef7792587e4298a77>@@PBDI@Z ; std::basic_string<char,std::char_traits<char>,std::allocator<char> >::_Reallocate_grow_by<<lambda_ab246b20b9526e2ef7792587e4298a77>,char const *,unsigned int>
PUBLIC	??$_Pocca@V?$allocator@D@std@@@std@@YAXAAV?$allocator@D@0@ABV10@@Z ; std::_Pocca<std::allocator<char> >
PUBLIC	??$_Construct_in_place@PADABQAD@std@@YAXAAPADABQAD@Z ; std::_Construct_in_place<char *,char * const &>
PUBLIC	??$_Pocma@V?$allocator@D@std@@@std@@YAXAAV?$allocator@D@0@0@Z ; std::_Pocma<std::allocator<char> >
PUBLIC	??$max@I@std@@YAABIABI0@Z			; std::max<unsigned int>
PUBLIC	??$_Get_size_of_n@$00@std@@YAII@Z		; std::_Get_size_of_n<1>
PUBLIC	??$_Allocate@$07U_Default_allocate_traits@std@@$0A@@std@@YAPAXI@Z ; std::_Allocate<8,std::_Default_allocate_traits,0>
PUBLIC	??$_Deallocate@$07$0A@@std@@YAXPAXI@Z		; std::_Deallocate<8,0>
PUBLIC	??$_Get_size_of_n@$07@std@@YAII@Z		; std::_Get_size_of_n<8>
PUBLIC	??$_Destroy_range@V?$allocator@UD2D1_GRADIENT_STOP@@@std@@@std@@YAXPAUD2D1_GRADIENT_STOP@@QAU1@AAV?$allocator@UD2D1_GRADIENT_STOP@@@0@@Z ; std::_Destroy_range<std::allocator<D2D1_GRADIENT_STOP> >
PUBLIC	??$_Get_size_of_n@$0CA@@std@@YAII@Z		; std::_Get_size_of_n<32>
PUBLIC	??$addressof@V?$_String_val@U?$_Simple_types@_W@std@@@std@@@std@@YAPAV?$_String_val@U?$_Simple_types@_W@std@@@0@AAV10@@Z ; std::addressof<std::_String_val<std::_Simple_types<wchar_t> > >
PUBLIC	??$addressof@$$CBV?$_String_val@U?$_Simple_types@_W@std@@@std@@@std@@YAPBV?$_String_val@U?$_Simple_types@_W@std@@@0@ABV10@@Z ; std::addressof<std::_String_val<std::_Simple_types<wchar_t> > const >
PUBLIC	??$addressof@V?$basic_string@_WU?$char_traits@_W@std@@V?$allocator@_W@2@@std@@@std@@YAPAV?$basic_string@_WU?$char_traits@_W@std@@V?$allocator@_W@2@@0@AAV10@@Z ; std::addressof<std::basic_string<wchar_t,std::char_traits<wchar_t>,std::allocator<wchar_t> > >
PUBLIC	??$addressof@V?$_String_val@U?$_Simple_types@D@std@@@std@@@std@@YAPAV?$_String_val@U?$_Simple_types@D@std@@@0@AAV10@@Z ; std::addressof<std::_String_val<std::_Simple_types<char> > >
PUBLIC	??$addressof@$$CBV?$_String_val@U?$_Simple_types@D@std@@@std@@@std@@YAPBV?$_String_val@U?$_Simple_types@D@std@@@0@ABV10@@Z ; std::addressof<std::_String_val<std::_Simple_types<char> > const >
PUBLIC	??$_Uninitialized_move@PAUPT@COLORPICK@@V?$allocator@UPT@COLORPICK@@@std@@@std@@YAPAUPT@COLORPICK@@QAU12@0PAU12@AAV?$allocator@UPT@COLORPICK@@@0@@Z ; std::_Uninitialized_move<COLORPICK::PT *,std::allocator<COLORPICK::PT> >
PUBLIC	??R<lambda_2fb699096920f2dc628cb0826b07831d>@@QBEXQA_WQB_WI1I@Z ; <lambda_2fb699096920f2dc628cb0826b07831d>::operator()
PUBLIC	??$_Reallocate_grow_by@V<lambda_2fb699096920f2dc628cb0826b07831d>@@PB_WI@?$basic_string@_WU?$char_traits@_W@std@@V?$allocator@_W@2@@std@@AAEAAV01@IV<lambda_2fb699096920f2dc628cb0826b07831d>@@PB_WI@Z ; std::basic_string<wchar_t,std::char_traits<wchar_t>,std::allocator<wchar_t> >::_Reallocate_grow_by<<lambda_2fb699096920f2dc628cb0826b07831d>,wchar_t const *,unsigned int>
PUBLIC	??$addressof@U_Container_proxy@std@@@std@@YAPAU_Container_proxy@0@AAU10@@Z ; std::addressof<std::_Container_proxy>
PUBLIC	??$forward@PAU_Container_base12@std@@@std@@YA$$QAPAU_Container_base12@0@AAPAU10@@Z ; std::forward<std::_Container_base12 *>
PUBLIC	??$_Verify_range@D@std@@YAXQBD0@Z		; std::_Verify_range<char>
PUBLIC	??$_Verify_range@_W@std@@YAXQB_W0@Z		; std::_Verify_range<wchar_t>
PUBLIC	??R?$default_delete@V_Facet_base@std@@@std@@QBEXPAV_Facet_base@1@@Z ; std::default_delete<std::_Facet_base>::operator()
PUBLIC	??1?$unique_ptr@V_Facet_base@std@@U?$default_delete@V_Facet_base@std@@@2@@std@@QAE@XZ ; std::unique_ptr<std::_Facet_base,std::default_delete<std::_Facet_base> >::~unique_ptr<std::_Facet_base,std::default_delete<std::_Facet_base> >
PUBLIC	?release@?$unique_ptr@V_Facet_base@std@@U?$default_delete@V_Facet_base@std@@@2@@std@@QAEPAV_Facet_base@2@XZ ; std::unique_ptr<std::_Facet_base,std::default_delete<std::_Facet_base> >::release
PUBLIC	?_Get_first@?$_Compressed_pair@U?$default_delete@V_Facet_base@std@@@std@@PAV_Facet_base@2@$00@std@@QAEAAU?$default_delete@V_Facet_base@std@@@2@XZ ; std::_Compressed_pair<std::default_delete<std::_Facet_base>,std::_Facet_base *,1>::_Get_first
PUBLIC	?__autoclassinit2@?$unique_ptr@V_Facet_base@std@@U?$default_delete@V_Facet_base@std@@@2@@std@@QAEXI@Z ; std::unique_ptr<std::_Facet_base,std::default_delete<std::_Facet_base> >::__autoclassinit2
PUBLIC	??$?0U?$default_delete@V_Facet_base@std@@@std@@$0A@@?$unique_ptr@V_Facet_base@std@@U?$default_delete@V_Facet_base@std@@@2@@std@@QAE@PAV_Facet_base@1@@Z ; std::unique_ptr<std::_Facet_base,std::default_delete<std::_Facet_base> >::unique_ptr<std::_Facet_base,std::default_delete<std::_Facet_base> ><std::default_delete<std::_Facet_base>,0>
PUBLIC	??$end@D$0BF@@std@@YAPADAAY0BF@D@Z		; std::end<char,21>
PUBLIC	??$_UIntegral_to_buff@DI@std@@YAPADPADI@Z	; std::_UIntegral_to_buff<char,unsigned int>
PUBLIC	??$?0PAD$0A@@?$basic_string@DU?$char_traits@D@std@@V?$allocator@D@2@@std@@QAE@PAD0ABV?$allocator@D@1@@Z ; std::basic_string<char,std::char_traits<char>,std::allocator<char> >::basic_string<char,std::char_traits<char>,std::allocator<char> ><char *,0>
PUBLIC	??$end@_W$0BF@@std@@YAPA_WAAY0BF@_W@Z		; std::end<wchar_t,21>
PUBLIC	??$_UIntegral_to_buff@_WI@std@@YAPA_WPA_WI@Z	; std::_UIntegral_to_buff<wchar_t,unsigned int>
PUBLIC	??$?0PA_W$0A@@?$basic_string@_WU?$char_traits@_W@std@@V?$allocator@_W@2@@std@@QAE@PA_W0ABV?$allocator@_W@1@@Z ; std::basic_string<wchar_t,std::char_traits<wchar_t>,std::allocator<wchar_t> >::basic_string<wchar_t,std::char_traits<wchar_t>,std::allocator<wchar_t> ><wchar_t *,0>
PUBLIC	??$move@AAV?$basic_istream@DU?$char_traits@D@std@@@std@@@std@@YA$$QAV?$basic_istream@DU?$char_traits@D@std@@@0@AAV10@@Z ; std::move<std::basic_istream<char,std::char_traits<char> > &>
PUBLIC	??0_Sentry_base@?$basic_ostream@DU?$char_traits@D@std@@@std@@QAE@AAV12@@Z ; std::basic_ostream<char,std::char_traits<char> >::_Sentry_base::_Sentry_base
PUBLIC	??1_Sentry_base@?$basic_ostream@DU?$char_traits@D@std@@@std@@QAE@XZ ; std::basic_ostream<char,std::char_traits<char> >::_Sentry_base::~_Sentry_base
PUBLIC	??0sentry@?$basic_ostream@DU?$char_traits@D@std@@@std@@QAE@AAV12@@Z ; std::basic_ostream<char,std::char_traits<char> >::sentry::sentry
PUBLIC	??1sentry@?$basic_ostream@DU?$char_traits@D@std@@@std@@QAE@XZ ; std::basic_ostream<char,std::char_traits<char> >::sentry::~sentry
PUBLIC	??Bsentry@?$basic_ostream@DU?$char_traits@D@std@@@std@@QBE_NXZ ; std::basic_ostream<char,std::char_traits<char> >::sentry::operator bool
PUBLIC	??$_Insert_string@DU?$char_traits@D@std@@I@std@@YAAAV?$basic_ostream@DU?$char_traits@D@std@@@0@AAV10@QBDI@Z ; std::_Insert_string<char,std::char_traits<char>,unsigned int>
PUBLIC	??0_Sentry_base@?$basic_ostream@_WU?$char_traits@_W@std@@@std@@QAE@AAV12@@Z ; std::basic_ostream<wchar_t,std::char_traits<wchar_t> >::_Sentry_base::_Sentry_base
PUBLIC	??1_Sentry_base@?$basic_ostream@_WU?$char_traits@_W@std@@@std@@QAE@XZ ; std::basic_ostream<wchar_t,std::char_traits<wchar_t> >::_Sentry_base::~_Sentry_base
PUBLIC	??0sentry@?$basic_ostream@_WU?$char_traits@_W@std@@@std@@QAE@AAV12@@Z ; std::basic_ostream<wchar_t,std::char_traits<wchar_t> >::sentry::sentry
PUBLIC	??1sentry@?$basic_ostream@_WU?$char_traits@_W@std@@@std@@QAE@XZ ; std::basic_ostream<wchar_t,std::char_traits<wchar_t> >::sentry::~sentry
PUBLIC	??Bsentry@?$basic_ostream@_WU?$char_traits@_W@std@@@std@@QBE_NXZ ; std::basic_ostream<wchar_t,std::char_traits<wchar_t> >::sentry::operator bool
PUBLIC	??$getline@DU?$char_traits@D@std@@V?$allocator@D@2@@std@@YAAAV?$basic_istream@DU?$char_traits@D@std@@@0@$$QAV10@AAV?$basic_string@DU?$char_traits@D@std@@V?$allocator@D@2@@0@D@Z ; std::getline<char,std::char_traits<char>,std::allocator<char> >
PUBLIC	??$_Insert_string@_WU?$char_traits@_W@std@@I@std@@YAAAV?$basic_ostream@_WU?$char_traits@_W@std@@@0@AAV10@QB_WI@Z ; std::_Insert_string<wchar_t,std::char_traits<wchar_t>,unsigned int>
PUBLIC	??$_Deallocate_plain@V?$allocator@U_Container_proxy@std@@@std@@@std@@YAXAAV?$allocator@U_Container_proxy@std@@@0@QAU_Container_proxy@0@@Z ; std::_Deallocate_plain<std::allocator<std::_Container_proxy> >
PUBLIC	??$forward@ABV?$allocator@UD2D1_GRADIENT_STOP@@@std@@@std@@YAABV?$allocator@UD2D1_GRADIENT_STOP@@@0@ABV10@@Z ; std::forward<std::allocator<D2D1_GRADIENT_STOP> const &>
PUBLIC	??1?$_Tidy_guard@V?$vector@UD2D1_GRADIENT_STOP@@V?$allocator@UD2D1_GRADIENT_STOP@@@std@@@std@@@std@@QAE@XZ ; std::_Tidy_guard<std::vector<D2D1_GRADIENT_STOP,std::allocator<D2D1_GRADIENT_STOP> > >::~_Tidy_guard<std::vector<D2D1_GRADIENT_STOP,std::allocator<D2D1_GRADIENT_STOP> > >
PUBLIC	??0_Sentry_base@?$basic_istream@DU?$char_traits@D@std@@@std@@QAE@AAV12@@Z ; std::basic_istream<char,std::char_traits<char> >::_Sentry_base::_Sentry_base
PUBLIC	??1_Sentry_base@?$basic_istream@DU?$char_traits@D@std@@@std@@QAE@XZ ; std::basic_istream<char,std::char_traits<char> >::_Sentry_base::~_Sentry_base
PUBLIC	??0sentry@?$basic_istream@DU?$char_traits@D@std@@@std@@QAE@AAV12@_N@Z ; std::basic_istream<char,std::char_traits<char> >::sentry::sentry
PUBLIC	??Bsentry@?$basic_istream@DU?$char_traits@D@std@@@std@@QBE_NXZ ; std::basic_istream<char,std::char_traits<char> >::sentry::operator bool
PUBLIC	??1sentry@?$basic_istream@DU?$char_traits@D@std@@@std@@QAE@XZ ; std::basic_istream<char,std::char_traits<char> >::sentry::~sentry
PUBLIC	??$forward@V?$allocator@_W@std@@@std@@YA$$QAV?$allocator@_W@0@AAV10@@Z ; std::forward<std::allocator<wchar_t> >
PUBLIC	??$forward@V?$allocator@D@std@@@std@@YA$$QAV?$allocator@D@0@AAV10@@Z ; std::forward<std::allocator<char> >
PUBLIC	??$_Construct_in_place@PA_WABQA_W@std@@YAXAAPA_WABQA_W@Z ; std::_Construct_in_place<wchar_t *,wchar_t * const &>
PUBLIC	??$addressof@PAD@std@@YAPAPADAAPAD@Z		; std::addressof<char *>
PUBLIC	??$forward@ABQAD@std@@YAABQADABQAD@Z		; std::forward<char * const &>
PUBLIC	??$_Allocate_manually_vector_aligned@U_Default_allocate_traits@std@@@std@@YAPAXI@Z ; std::_Allocate_manually_vector_aligned<std::_Default_allocate_traits>
PUBLIC	??$_Get_unwrapped@ABQAUPT@COLORPICK@@@std@@YA@ABQAUPT@COLORPICK@@@Z ; std::_Get_unwrapped<COLORPICK::PT * const &>
PUBLIC	??$move@AAUPT@COLORPICK@@@std@@YA$$QAUPT@COLORPICK@@AAU12@@Z ; std::move<COLORPICK::PT &>
PUBLIC	??0?$_Uninitialized_backout_al@V?$allocator@UPT@COLORPICK@@@std@@@std@@QAE@PAUPT@COLORPICK@@AAV?$allocator@UPT@COLORPICK@@@1@@Z ; std::_Uninitialized_backout_al<std::allocator<COLORPICK::PT> >::_Uninitialized_backout_al<std::allocator<COLORPICK::PT> >
PUBLIC	??1?$_Uninitialized_backout_al@V?$allocator@UPT@COLORPICK@@@std@@@std@@QAE@XZ ; std::_Uninitialized_backout_al<std::allocator<COLORPICK::PT> >::~_Uninitialized_backout_al<std::allocator<COLORPICK::PT> >
PUBLIC	?_Release@?$_Uninitialized_backout_al@V?$allocator@UPT@COLORPICK@@@std@@@std@@QAEPAUPT@COLORPICK@@XZ ; std::_Uninitialized_backout_al<std::allocator<COLORPICK::PT> >::_Release
PUBLIC	?__autoclassinit2@?$_Uninitialized_backout_al@V?$allocator@UPT@COLORPICK@@@std@@@std@@QAEXI@Z ; std::_Uninitialized_backout_al<std::allocator<COLORPICK::PT> >::__autoclassinit2
PUBLIC	??$_Emplace_back@UPT@COLORPICK@@@?$_Uninitialized_backout_al@V?$allocator@UPT@COLORPICK@@@std@@@std@@QAEX$$QAUPT@COLORPICK@@@Z ; std::_Uninitialized_backout_al<std::allocator<COLORPICK::PT> >::_Emplace_back<COLORPICK::PT>
PUBLIC	??$exchange@PAV_Facet_base@std@@PAV12@@std@@YAPAV_Facet_base@0@AAPAV10@$$QAPAV10@@Z ; std::exchange<std::_Facet_base *,std::_Facet_base *>
PUBLIC	??$_Uninitialized_value_construct_n@V?$allocator@UD2D1_GRADIENT_STOP@@@std@@@std@@YAPAUD2D1_GRADIENT_STOP@@PAU1@IAAV?$allocator@UD2D1_GRADIENT_STOP@@@0@@Z ; std::_Uninitialized_value_construct_n<std::allocator<D2D1_GRADIENT_STOP> >
PUBLIC	??$_Get_size_of_n@$01@std@@YAII@Z		; std::_Get_size_of_n<2>
PUBLIC	??$?0AAV?$allocator@_W@std@@$$V@?$_Compressed_pair@V?$allocator@_W@std@@V?$_String_val@U?$_Simple_types@_W@std@@@2@$00@std@@QAE@U_One_then_variadic_args_t@1@AAV?$allocator@_W@1@@Z ; std::_Compressed_pair<std::allocator<wchar_t>,std::_String_val<std::_Simple_types<wchar_t> >,1>::_Compressed_pair<std::allocator<wchar_t>,std::_String_val<std::_Simple_types<wchar_t> >,1><std::allocator<wchar_t> &>
PUBLIC	??$_Allocators_equal@V?$allocator@_W@std@@@std@@YA_NABV?$allocator@_W@0@0@Z ; std::_Allocators_equal<std::allocator<wchar_t> >
PUBLIC	??$?0AAV?$allocator@D@std@@$$V@?$_Compressed_pair@V?$allocator@D@std@@V?$_String_val@U?$_Simple_types@D@std@@@2@$00@std@@QAE@U_One_then_variadic_args_t@1@AAV?$allocator@D@1@@Z ; std::_Compressed_pair<std::allocator<char>,std::_String_val<std::_Simple_types<char> >,1>::_Compressed_pair<std::allocator<char>,std::_String_val<std::_Simple_types<char> >,1><std::allocator<char> &>
PUBLIC	??$_Allocators_equal@V?$allocator@D@std@@@std@@YA_NABV?$allocator@D@0@0@Z ; std::_Allocators_equal<std::allocator<char> >
PUBLIC	??R<lambda_09fe38f6114539daa867a3e4d6874f49>@@QBEXQA_WQB_WII1I@Z ; <lambda_09fe38f6114539daa867a3e4d6874f49>::operator()
PUBLIC	??$_Reallocate_grow_by@V<lambda_09fe38f6114539daa867a3e4d6874f49>@@IPB_WI@?$basic_string@_WU?$char_traits@_W@std@@V?$allocator@_W@2@@std@@AAEAAV01@IV<lambda_09fe38f6114539daa867a3e4d6874f49>@@IPB_WI@Z ; std::basic_string<wchar_t,std::char_traits<wchar_t>,std::allocator<wchar_t> >::_Reallocate_grow_by<<lambda_09fe38f6114539daa867a3e4d6874f49>,unsigned int,wchar_t const *,unsigned int>
PUBLIC	??R<lambda_4d79bb85f269e6e8002a4599002d832c>@@QBEXQADQBDII1I@Z ; <lambda_4d79bb85f269e6e8002a4599002d832c>::operator()
PUBLIC	??$_Reallocate_grow_by@V<lambda_4d79bb85f269e6e8002a4599002d832c>@@IPBDI@?$basic_string@DU?$char_traits@D@std@@V?$allocator@D@2@@std@@AAEAAV01@IV<lambda_4d79bb85f269e6e8002a4599002d832c>@@IPBDI@Z ; std::basic_string<char,std::char_traits<char>,std::allocator<char> >::_Reallocate_grow_by<<lambda_4d79bb85f269e6e8002a4599002d832c>,unsigned int,char const *,unsigned int>
PUBLIC	??$_Get_size_of_n@$0BE@@std@@YAII@Z		; std::_Get_size_of_n<20>
PUBLIC	??$?0AAPAV_Facet_base@std@@@?$_Compressed_pair@U?$default_delete@V_Facet_base@std@@@std@@PAV_Facet_base@2@$00@std@@QAE@U_Zero_then_variadic_args_t@1@AAPAV_Facet_base@1@@Z ; std::_Compressed_pair<std::default_delete<std::_Facet_base>,std::_Facet_base *,1>::_Compressed_pair<std::default_delete<std::_Facet_base>,std::_Facet_base *,1><std::_Facet_base * &>
PUBLIC	??$?0ABV?$allocator@D@std@@$$V@?$_Compressed_pair@V?$allocator@D@std@@V?$_String_val@U?$_Simple_types@D@std@@@2@$00@std@@QAE@U_One_then_variadic_args_t@1@ABV?$allocator@D@1@@Z ; std::_Compressed_pair<std::allocator<char>,std::_String_val<std::_Simple_types<char> >,1>::_Compressed_pair<std::allocator<char>,std::_String_val<std::_Simple_types<char> >,1><std::allocator<char> const &>
PUBLIC	??$_Get_unwrapped@AAPAD@std@@YA@AAPAD@Z		; std::_Get_unwrapped<char * &>
PUBLIC	??$?0ABV?$allocator@_W@std@@$$V@?$_Compressed_pair@V?$allocator@_W@std@@V?$_String_val@U?$_Simple_types@_W@std@@@2@$00@std@@QAE@U_One_then_variadic_args_t@1@ABV?$allocator@_W@1@@Z ; std::_Compressed_pair<std::allocator<wchar_t>,std::_String_val<std::_Simple_types<wchar_t> >,1>::_Compressed_pair<std::allocator<wchar_t>,std::_String_val<std::_Simple_types<wchar_t> >,1><std::allocator<wchar_t> const &>
PUBLIC	??$_Get_unwrapped@AAPA_W@std@@YA@AAPA_W@Z	; std::_Get_unwrapped<wchar_t * &>
PUBLIC	?deallocate@?$_Default_allocator_traits@V?$allocator@U_Container_proxy@std@@@std@@@std@@SAXAAV?$allocator@U_Container_proxy@std@@@2@QAU_Container_proxy@2@I@Z ; std::_Default_allocator_traits<std::allocator<std::_Container_proxy> >::deallocate
PUBLIC	??$addressof@PA_W@std@@YAPAPA_WAAPA_W@Z		; std::addressof<wchar_t *>
PUBLIC	??$forward@ABQA_W@std@@YAABQA_WABQA_W@Z		; std::forward<wchar_t * const &>
PUBLIC	??$forward@UPT@COLORPICK@@@std@@YA$$QAUPT@COLORPICK@@AAU12@@Z ; std::forward<COLORPICK::PT>
PUBLIC	??$construct@UPT@COLORPICK@@U12@@?$_Default_allocator_traits@V?$allocator@UPT@COLORPICK@@@std@@@std@@SAXAAV?$allocator@UPT@COLORPICK@@@1@QAUPT@COLORPICK@@$$QAU34@@Z ; std::_Default_allocator_traits<std::allocator<COLORPICK::PT> >::construct<COLORPICK::PT,COLORPICK::PT>
PUBLIC	??0?$_Uninitialized_backout_al@V?$allocator@UD2D1_GRADIENT_STOP@@@std@@@std@@QAE@PAUD2D1_GRADIENT_STOP@@AAV?$allocator@UD2D1_GRADIENT_STOP@@@1@@Z ; std::_Uninitialized_backout_al<std::allocator<D2D1_GRADIENT_STOP> >::_Uninitialized_backout_al<std::allocator<D2D1_GRADIENT_STOP> >
PUBLIC	??1?$_Uninitialized_backout_al@V?$allocator@UD2D1_GRADIENT_STOP@@@std@@@std@@QAE@XZ ; std::_Uninitialized_backout_al<std::allocator<D2D1_GRADIENT_STOP> >::~_Uninitialized_backout_al<std::allocator<D2D1_GRADIENT_STOP> >
PUBLIC	?_Release@?$_Uninitialized_backout_al@V?$allocator@UD2D1_GRADIENT_STOP@@@std@@@std@@QAEPAUD2D1_GRADIENT_STOP@@XZ ; std::_Uninitialized_backout_al<std::allocator<D2D1_GRADIENT_STOP> >::_Release
PUBLIC	?__autoclassinit2@?$_Uninitialized_backout_al@V?$allocator@UD2D1_GRADIENT_STOP@@@std@@@std@@QAEXI@Z ; std::_Uninitialized_backout_al<std::allocator<D2D1_GRADIENT_STOP> >::__autoclassinit2
PUBLIC	??$_Emplace_back@$$V@?$_Uninitialized_backout_al@V?$allocator@UD2D1_GRADIENT_STOP@@@std@@@std@@QAEXXZ ; std::_Uninitialized_backout_al<std::allocator<D2D1_GRADIENT_STOP> >::_Emplace_back<>
PUBLIC	??$forward@AAV?$allocator@_W@std@@@std@@YAAAV?$allocator@_W@0@AAV10@@Z ; std::forward<std::allocator<wchar_t> &>
PUBLIC	??$forward@AAV?$allocator@D@std@@@std@@YAAAV?$allocator@D@0@AAV10@@Z ; std::forward<std::allocator<char> &>
PUBLIC	??$forward@AAPAV_Facet_base@std@@@std@@YAAAPAV_Facet_base@0@AAPAV10@@Z ; std::forward<std::_Facet_base * &>
PUBLIC	??$forward@ABV?$allocator@D@std@@@std@@YAABV?$allocator@D@0@ABV10@@Z ; std::forward<std::allocator<char> const &>
PUBLIC	??$forward@ABV?$allocator@_W@std@@@std@@YAABV?$allocator@_W@0@ABV10@@Z ; std::forward<std::allocator<wchar_t> const &>
PUBLIC	??$_Unfancy@UD2D1_GRADIENT_STOP@@@std@@YAPAUD2D1_GRADIENT_STOP@@PAU1@@Z ; std::_Unfancy<D2D1_GRADIENT_STOP>
PUBLIC	??$construct@UD2D1_GRADIENT_STOP@@$$V@?$_Default_allocator_traits@V?$allocator@UD2D1_GRADIENT_STOP@@@std@@@std@@SAXAAV?$allocator@UD2D1_GRADIENT_STOP@@@1@QAUD2D1_GRADIENT_STOP@@@Z ; std::_Default_allocator_traits<std::allocator<D2D1_GRADIENT_STOP> >::construct<D2D1_GRADIENT_STOP>
PUBLIC	??_E?$basic_istringstream@DU?$char_traits@D@std@@V?$allocator@D@2@@std@@$4PPPPPPPM@A@AEPAXI@Z ; std::basic_istringstream<char,std::char_traits<char>,std::allocator<char> >::`vector deleting destructor'
PUBLIC	??_E?$basic_stringstream@DU?$char_traits@D@std@@V?$allocator@D@2@@std@@$4PPPPPPPM@A@AEPAXI@Z ; std::basic_stringstream<char,std::char_traits<char>,std::allocator<char> >::`vector deleting destructor'
PUBLIC	??_E?$basic_ifstream@DU?$char_traits@D@std@@@std@@$4PPPPPPPM@A@AEPAXI@Z ; std::basic_ifstream<char,std::char_traits<char> >::`vector deleting destructor'
PUBLIC	??_E?$basic_ofstream@DU?$char_traits@D@std@@@std@@$4PPPPPPPM@A@AEPAXI@Z ; std::basic_ofstream<char,std::char_traits<char> >::`vector deleting destructor'
PUBLIC	??_E?$basic_ofstream@_WU?$char_traits@_W@std@@@std@@$4PPPPPPPM@A@AEPAXI@Z ; std::basic_ofstream<wchar_t,std::char_traits<wchar_t> >::`vector deleting destructor'
PUBLIC	__JustMyCode_Default
PUBLIC	?_OptionsStorage@?1??__local_stdio_printf_options@@9@4_KA ; `__local_stdio_printf_options'::`2'::_OptionsStorage
PUBLIC	??_7exception@std@@6B@				; std::exception::`vftable'
PUBLIC	??_C@_0BC@EOODALEL@Unknown?5exception@		; `string'
PUBLIC	??_7bad_alloc@std@@6B@				; std::bad_alloc::`vftable'
PUBLIC	??_7bad_array_new_length@std@@6B@		; std::bad_array_new_length::`vftable'
PUBLIC	??_C@_0BF@KINCDENJ@bad?5array?5new?5length@	; `string'
PUBLIC	__TI3?AVbad_array_new_length@std@@
PUBLIC	__CTA3?AVbad_array_new_length@std@@
PUBLIC	??_R0?AVbad_array_new_length@std@@@8		; std::bad_array_new_length `RTTI Type Descriptor'
PUBLIC	__CT??_R0?AVbad_array_new_length@std@@@8??0bad_array_new_length@std@@QAE@ABV01@@Z12
PUBLIC	??_R0?AVbad_alloc@std@@@8			; std::bad_alloc `RTTI Type Descriptor'
PUBLIC	__CT??_R0?AVbad_alloc@std@@@8??0bad_alloc@std@@QAE@ABV01@@Z12
PUBLIC	??_R0?AVexception@std@@@8			; std::exception `RTTI Type Descriptor'
PUBLIC	__CT??_R0?AVexception@std@@@8??0exception@std@@QAE@ABV01@@Z12
PUBLIC	?__LINE__Var@?0??_Adjust_manually_vector_aligned@std@@YAXAAPAXAAI@Z@4JA ; `std::_Adjust_manually_vector_aligned'::`1'::__LINE__Var
PUBLIC	??_C@_0BB@FCMFBGOM@invalid?5argument@		; `string'
PUBLIC	??_C@_02DKCKIIND@?$CFs@				; `string'
PUBLIC	??_C@_0FE@ELBNMLDG@D?3?2Microsoft?5Visual?5Studio?22019@ ; `string'
PUBLIC	??_C@_1KI@PMMCEADF@?$AAD?$AA?3?$AA?2?$AAM?$AAi?$AAc?$AAr?$AAo?$AAs?$AAo?$AAf?$AAt?$AA?5?$AAV?$AAi@ ; `string'
PUBLIC	??_C@_1EK@NIFDJFDG@?$AAs?$AAt?$AAd?$AA?3?$AA?3?$AA_?$AAA?$AAd?$AAj?$AAu?$AAs?$AAt?$AA_?$AAm?$AAa@ ; `string'
PUBLIC	??_C@_1CG@JNLFBNGN@?$AA?$CC?$AAi?$AAn?$AAv?$AAa?$AAl?$AAi?$AAd?$AA?5?$AAa?$AAr?$AAg?$AAu?$AAm?$AAe@ ; `string'
PUBLIC	??_C@_0BA@JFNIOLAK@string?5too?5long@		; `string'
PUBLIC	??_7bad_cast@std@@6B@				; std::bad_cast::`vftable'
PUBLIC	??_C@_08EPJLHIJG@bad?5cast@			; `string'
PUBLIC	__TI2?AVbad_cast@std@@
PUBLIC	__CTA2?AVbad_cast@std@@
PUBLIC	??_R0?AVbad_cast@std@@@8			; std::bad_cast `RTTI Type Descriptor'
PUBLIC	__CT??_R0?AVbad_cast@std@@@8??0bad_cast@std@@QAE@ABV01@@Z12
PUBLIC	?__LINE__Var@?0??ParseFigurePart@@YA?AUFigurePart@@V?$basic_string@DU?$char_traits@D@std@@V?$allocator@D@2@@std@@@Z@4JA ; `ParseFigurePart'::`1'::__LINE__Var
PUBLIC	??_7?$basic_stringbuf@DU?$char_traits@D@std@@V?$allocator@D@2@@std@@6B@ ; std::basic_stringbuf<char,std::char_traits<char>,std::allocator<char> >::`vftable'
PUBLIC	??_7?$basic_stringstream@DU?$char_traits@D@std@@V?$allocator@D@2@@std@@6B@ ; std::basic_stringstream<char,std::char_traits<char>,std::allocator<char> >::`vftable'
PUBLIC	??_8?$basic_stringstream@DU?$char_traits@D@std@@V?$allocator@D@2@@std@@7B?$basic_istream@DU?$char_traits@D@std@@@1@@ ; std::basic_stringstream<char,std::char_traits<char>,std::allocator<char> >::`vbtable'
PUBLIC	??_8?$basic_stringstream@DU?$char_traits@D@std@@V?$allocator@D@2@@std@@7B?$basic_ostream@DU?$char_traits@D@std@@@1@@ ; std::basic_stringstream<char,std::char_traits<char>,std::allocator<char> >::`vbtable'
PUBLIC	??_C@_1HK@IHEJHEON@?$AAD?$AA?3?$AA?2?$AAC?$AA?$CL?$AA?$CL?$AAP?$AAR?$AAO?$AAG?$AAR?$AAA?$AAM?$AAU?$AAJ@ ; `string'
PUBLIC	??_C@_1CJK@CMAJHMAF@?$AAi?$AAd?$AA_?$AAt?$AAy?$AAp?$AAe?$AA?5?$AA?$DN?$AA?$DN?$AA?5?$AAR?$AAE?$AAC?$AAT@ ; `string'
PUBLIC	??_C@_01EEMJAFIK@?6@				; `string'
PUBLIC	??_7?$basic_istringstream@DU?$char_traits@D@std@@V?$allocator@D@2@@std@@6B@ ; std::basic_istringstream<char,std::char_traits<char>,std::allocator<char> >::`vftable'
PUBLIC	??_8?$basic_istringstream@DU?$char_traits@D@std@@V?$allocator@D@2@@std@@7B@ ; std::basic_istringstream<char,std::char_traits<char>,std::allocator<char> >::`vbtable'
PUBLIC	??_7?$basic_filebuf@DU?$char_traits@D@std@@@std@@6B@ ; std::basic_filebuf<char,std::char_traits<char> >::`vftable'
PUBLIC	??_7?$basic_ofstream@DU?$char_traits@D@std@@@std@@6B@ ; std::basic_ofstream<char,std::char_traits<char> >::`vftable'
PUBLIC	??_8?$basic_ofstream@DU?$char_traits@D@std@@@std@@7B@ ; std::basic_ofstream<char,std::char_traits<char> >::`vbtable'
PUBLIC	??_7?$basic_filebuf@_WU?$char_traits@_W@std@@@std@@6B@ ; std::basic_filebuf<wchar_t,std::char_traits<wchar_t> >::`vftable'
PUBLIC	??_7?$basic_ofstream@_WU?$char_traits@_W@std@@@std@@6B@ ; std::basic_ofstream<wchar_t,std::char_traits<wchar_t> >::`vftable'
PUBLIC	??_8?$basic_ofstream@_WU?$char_traits@_W@std@@@std@@7B@ ; std::basic_ofstream<wchar_t,std::char_traits<wchar_t> >::`vbtable'
PUBLIC	??_7?$basic_ifstream@DU?$char_traits@D@std@@@std@@6B@ ; std::basic_ifstream<char,std::char_traits<char> >::`vftable'
PUBLIC	??_8?$basic_ifstream@DU?$char_traits@D@std@@@std@@7B@ ; std::basic_ifstream<char,std::char_traits<char> >::`vbtable'
PUBLIC	?__LINE__Var@?0??SaveFigurePartToSvg@@YAXUFigurePart@@V?$basic_string@DU?$char_traits@D@std@@V?$allocator@D@2@@std@@@Z@4JA ; `SaveFigurePartToSvg'::`1'::__LINE__Var
PUBLIC	??_C@_0CM@CBKGBNFK@?$DM?$DPxml?5version?5?$DN?5?$CC1?40?$CC?5encoding?5@ ; `string'
PUBLIC	??_C@_0GD@CJBBGBLP@?$DM?$CBDOCTYPE?5svg?5PUBLIC?5?$CC?9?1?1W3C?1?1D@ ; `string'
PUBLIC	??_C@_0LI@FFEFNLND@?$DMsvg?5version?$DN?$CC1?41?$CC?5id?$DN?$CCLayer_2?$CC@ ; `string'
PUBLIC	??_C@_06JPFIEIIP@?$CJ?$CC?5?1?$DO?6@		; `string'
PUBLIC	??_C@_01IHBHIGKO@?0@				; `string'
PUBLIC	??_C@_0BD@PGDDBGMN@?$CC?5style?$DN?$CCfill?3rgb?$CI@ ; `string'
PUBLIC	??_C@_0BP@HLHEAOBO@?$CJ?$DL?5stroke?9width?33?$DL?5stroke?3rgb?$CI@ ; `string'
PUBLIC	??_C@_0L@LHKEPLMG@?$CC?5height?$DN?$CC@		; `string'
PUBLIC	??_C@_0P@FDFOMOLC@?7?$DMrect?5width?$DN?$CC@	; `string'
PUBLIC	??_C@_06HNBPLMD@?$DM?1svg?$DO@			; `string'
PUBLIC	??_C@_0BP@NDPCLPIP@?$CJ?$DL?5stroke?9width?31?$DL?5stroke?3rgb?$CI@ ; `string'
PUBLIC	??_C@_01CLKCMJKC@?5@				; `string'
PUBLIC	??_C@_0BD@ELJNEMHC@?7?$DMpolygon?5points?$DN?$CC@ ; `string'
PUBLIC	?__LINE__Var@?0??SaveFigurePartToHtml@@YAXUFigurePart@@V?$basic_string@DU?$char_traits@D@std@@V?$allocator@D@2@@std@@@Z@4JA ; `SaveFigurePartToHtml'::`1'::__LINE__Var
PUBLIC	??_C@_06GMAAMPJO@?$DMhmtl?$DO@			; `string'
PUBLIC	??_C@_06DFKEHCEK@?$DMhead?$DO@			; `string'
PUBLIC	??_C@_0CA@NKEDGCOF@?$DMtitle?$DO?5Figure?5to?5html?5?$DM?1title?$DO@ ; `string'
PUBLIC	??_C@_07EJLOLCDM@?$DM?1head?$DO@		; `string'
PUBLIC	??_C@_06PNKPIJJM@?$DMbody?$DO@			; `string'
PUBLIC	??_C@_0CE@MNEHCCIE@?$DMsvg?5width?$DN?$CC10000?$CC?5height?$DN?$CC1000@ ; `string'
PUBLIC	??_C@_07IBLFEJOK@?$DM?1body?$DO@		; `string'
PUBLIC	??_C@_07FAPLOCAO@?$DM?1html?$DO@		; `string'
PUBLIC	?__LINE__Var@?0??SaveFigurePartToSvgW@@YAXUFigurePart@@V?$basic_string@_WU?$char_traits@_W@std@@V?$allocator@_W@2@@std@@@Z@4JA ; `SaveFigurePartToSvgW'::`1'::__LINE__Var
PUBLIC	??_C@_1FI@OHEDHLJN@?$AA?$DM?$AA?$DP?$AAx?$AAm?$AAl?$AA?5?$AAv?$AAe?$AAr?$AAs?$AAi?$AAo?$AAn?$AA?5?$AA?$DN@ ; `string'
PUBLIC	??_C@_1MG@LPBBAEDP@?$AA?$DM?$AA?$CB?$AAD?$AAO?$AAC?$AAT?$AAY?$AAP?$AAE?$AA?5?$AAs?$AAv?$AAg?$AA?5?$AAP@ ; `string'
PUBLIC	??_C@_1BHA@MHEFOIFM@?$AA?$DM?$AAs?$AAv?$AAg?$AA?5?$AAv?$AAe?$AAr?$AAs?$AAi?$AAo?$AAn?$AA?$DN?$AA?$CC?$AA1@ ; `string'
PUBLIC	??_C@_1O@IHLKLBFE@?$AA?$CJ?$AA?$CC?$AA?5?$AA?1?$AA?$DO?$AA?6@ ; `string'
PUBLIC	??_C@_13DEFPDAGF@?$AA?0@			; `string'
PUBLIC	??_C@_1CG@IEBCKNNC@?$AA?$CC?$AA?5?$AAs?$AAt?$AAy?$AAl?$AAe?$AA?$DN?$AA?$CC?$AAf?$AAi?$AAl?$AAl?$AA?3?$AAr@ ; `string'
PUBLIC	??_C@_1DO@FLLNOOJM@?$AA?$CJ?$AA?$DL?$AA?5?$AAs?$AAt?$AAr?$AAo?$AAk?$AAe?$AA?9?$AAw?$AAi?$AAd?$AAt?$AAh@ ; `string'
PUBLIC	??_C@_1BG@HONDCOFM@?$AA?$CC?$AA?5?$AAh?$AAe?$AAi?$AAg?$AAh?$AAt?$AA?$DN?$AA?$CC@ ; `string'
PUBLIC	??_C@_1BO@NLLIPPNA@?$AA?7?$AA?$DM?$AAr?$AAe?$AAc?$AAt?$AA?5?$AAw?$AAi?$AAd?$AAt?$AAh?$AA?$DN?$AA?$CC@ ; `string'
PUBLIC	??_C@_1O@LHIGABNE@?$AA?$DM?$AA?1?$AAs?$AAv?$AAg?$AA?$DO@ ; `string'
PUBLIC	??_C@_1DO@CDHMCIIM@?$AA?$CJ?$AA?$DL?$AA?5?$AAs?$AAt?$AAr?$AAo?$AAk?$AAe?$AA?9?$AAw?$AAi?$AAd?$AAt?$AAh@ ; `string'
PUBLIC	??_C@_13HOIJIPNN@?$AA?5@			; `string'
PUBLIC	??_C@_1CG@LEFFFFLD@?$AA?7?$AA?$DM?$AAp?$AAo?$AAl?$AAy?$AAg?$AAo?$AAn?$AA?5?$AAp?$AAo?$AAi?$AAn?$AAt@ ; `string'
PUBLIC	?__LINE__Var@?0??SaveFigurePartToHtmlW@@YAXUFigurePart@@V?$basic_string@_WU?$char_traits@_W@std@@V?$allocator@_W@2@@std@@@Z@4JA ; `SaveFigurePartToHtmlW'::`1'::__LINE__Var
PUBLIC	??_C@_1O@OCPIBJEO@?$AA?$DM?$AAh?$AAm?$AAt?$AAl?$AA?$DO@ ; `string'
PUBLIC	??_C@_1O@CJCHOEJI@?$AA?$DM?$AAh?$AAe?$AAa?$AAd?$AA?$DO@ ; `string'
PUBLIC	??_C@_1EA@JCFGIIMH@?$AA?$DM?$AAt?$AAi?$AAt?$AAl?$AAe?$AA?$DO?$AA?5?$AAF?$AAi?$AAg?$AAu?$AAr?$AAe?$AA?5@ ; `string'
PUBLIC	??_C@_1BA@FIMOFJJG@?$AA?$DM?$AA?1?$AAh?$AAe?$AAa?$AAd?$AA?$DO@ ; `string'
PUBLIC	??_C@_1O@CDJKIDBB@?$AA?$DM?$AAb?$AAo?$AAd?$AAy?$AA?$DO@ ; `string'
PUBLIC	??_C@_1EI@ICGNNPIM@?$AA?$DM?$AAs?$AAv?$AAg?$AA?5?$AAw?$AAi?$AAd?$AAt?$AAh?$AA?$DN?$AA?$CC?$AA1?$AA0?$AA0@ ; `string'
PUBLIC	??_C@_1BA@FCHDDOBP@?$AA?$DM?$AA?1?$AAb?$AAo?$AAd?$AAy?$AA?$DO@ ; `string'
PUBLIC	??_C@_1BA@CLFOCEGC@?$AA?$DM?$AA?1?$AAh?$AAt?$AAm?$AAl?$AA?$DO@ ; `string'
PUBLIC	??_C@_19GFDACHI@?$AAI?$AAn?$AAf?$AAo@		; `string'
PUBLIC	??_C@_1JG@MIJPBHCG@?$AAD?$AAo?$AA?5?$AAy?$AAo?$AAu?$AA?5?$AAw?$AAa?$AAn?$AAt?$AA?5?$AAt?$AAo?$AA?5@ ; `string'
PUBLIC	??_C@_13COJANIEC@?$AA0@				; `string'
PUBLIC	??_C@_17CNPHIMPH@?$AA?$CF?$AAl?$AAs@		; `string'
PUBLIC	??_C@_1LM@NDOEFOIE@?$AAD?$AA?3?$AA?2?$AAM?$AAi?$AAc?$AAr?$AAo?$AAs?$AAo?$AAf?$AAt?$AA?5?$AAV?$AAi@ ; `string'
PUBLIC	?atlTraceGeneral@ATL@@3V?$CTraceCategoryEx@$00$0A@@1@A ; ATL::atlTraceGeneral
PUBLIC	??_C@_1CA@ONGMEOAB@?$AAa?$AAt?$AAl?$AAT?$AAr?$AAa?$AAc?$AAe?$AAG?$AAe?$AAn?$AAe?$AAr?$AAa?$AAl@ ; `string'
PUBLIC	?atlTraceCOM@ATL@@3V?$CTraceCategoryEx@$01$0A@@1@A ; ATL::atlTraceCOM
PUBLIC	??_C@_1BI@MAFGHOEE@?$AAa?$AAt?$AAl?$AAT?$AAr?$AAa?$AAc?$AAe?$AAC?$AAO?$AAM@ ; `string'
PUBLIC	?atlTraceQI@ATL@@3V?$CTraceCategoryEx@$03$0A@@1@A ; ATL::atlTraceQI
PUBLIC	??_C@_1BG@FPLJJEMF@?$AAa?$AAt?$AAl?$AAT?$AAr?$AAa?$AAc?$AAe?$AAQ?$AAI@ ; `string'
PUBLIC	?atlTraceRegistrar@ATL@@3V?$CTraceCategoryEx@$07$0A@@1@A ; ATL::atlTraceRegistrar
PUBLIC	??_C@_1CE@NIAEAIDK@?$AAa?$AAt?$AAl?$AAT?$AAr?$AAa?$AAc?$AAe?$AAR?$AAe?$AAg?$AAi?$AAs?$AAt?$AAr@ ; `string'
PUBLIC	?atlTraceRefcount@ATL@@3V?$CTraceCategoryEx@$0BA@$0A@@1@A ; ATL::atlTraceRefcount
PUBLIC	??_C@_1CC@BNHGJFNK@?$AAa?$AAt?$AAl?$AAT?$AAr?$AAa?$AAc?$AAe?$AAR?$AAe?$AAf?$AAc?$AAo?$AAu?$AAn@ ; `string'
PUBLIC	?atlTraceWindowing@ATL@@3V?$CTraceCategoryEx@$0CA@$0A@@1@A ; ATL::atlTraceWindowing
PUBLIC	??_C@_1CE@NAJDPMNB@?$AAa?$AAt?$AAl?$AAT?$AAr?$AAa?$AAc?$AAe?$AAW?$AAi?$AAn?$AAd?$AAo?$AAw?$AAi@ ; `string'
PUBLIC	?atlTraceControls@ATL@@3V?$CTraceCategoryEx@$0EA@$0A@@1@A ; ATL::atlTraceControls
PUBLIC	??_C@_1CC@IMNJGBED@?$AAa?$AAt?$AAl?$AAT?$AAr?$AAa?$AAc?$AAe?$AAC?$AAo?$AAn?$AAt?$AAr?$AAo?$AAl@ ; `string'
PUBLIC	?atlTraceHosting@ATL@@3V?$CTraceCategoryEx@$0IA@$0A@@1@A ; ATL::atlTraceHosting
PUBLIC	??_C@_1CA@OMOMONMN@?$AAa?$AAt?$AAl?$AAT?$AAr?$AAa?$AAc?$AAe?$AAH?$AAo?$AAs?$AAt?$AAi?$AAn?$AAg@ ; `string'
PUBLIC	?atlTraceDBClient@ATL@@3V?$CTraceCategoryEx@$0BAA@$0A@@1@A ; ATL::atlTraceDBClient
PUBLIC	??_C@_1CC@JNJJDOOH@?$AAa?$AAt?$AAl?$AAT?$AAr?$AAa?$AAc?$AAe?$AAD?$AAB?$AAC?$AAl?$AAi?$AAe?$AAn@ ; `string'
PUBLIC	?atlTraceDBProvider@ATL@@3V?$CTraceCategoryEx@$0CAA@$0A@@1@A ; ATL::atlTraceDBProvider
PUBLIC	??_C@_1CG@MNMMIOOI@?$AAa?$AAt?$AAl?$AAT?$AAr?$AAa?$AAc?$AAe?$AAD?$AAB?$AAP?$AAr?$AAo?$AAv?$AAi@ ; `string'
PUBLIC	?atlTraceSnapin@ATL@@3V?$CTraceCategoryEx@$0EAA@$0A@@1@A ; ATL::atlTraceSnapin
PUBLIC	??_C@_1BO@EFPHNHHN@?$AAa?$AAt?$AAl?$AAT?$AAr?$AAa?$AAc?$AAe?$AAS?$AAn?$AAa?$AAp?$AAi?$AAn@ ; `string'
PUBLIC	?atlTraceNotImpl@ATL@@3V?$CTraceCategoryEx@$0IAA@$0A@@1@A ; ATL::atlTraceNotImpl
PUBLIC	??_C@_1CA@DMHPIODO@?$AAa?$AAt?$AAl?$AAT?$AAr?$AAa?$AAc?$AAe?$AAN?$AAo?$AAt?$AAI?$AAm?$AAp?$AAl@ ; `string'
PUBLIC	?atlTraceAllocation@ATL@@3V?$CTraceCategoryEx@$0BAAA@$0A@@1@A ; ATL::atlTraceAllocation
PUBLIC	??_C@_1CG@KFEEMCDH@?$AAa?$AAt?$AAl?$AAT?$AAr?$AAa?$AAc?$AAe?$AAA?$AAl?$AAl?$AAo?$AAc?$AAa?$AAt@ ; `string'
PUBLIC	?atlTraceException@ATL@@3V?$CTraceCategoryEx@$0CAAA@$0A@@1@A ; ATL::atlTraceException
PUBLIC	??_C@_1CE@IMMADNAP@?$AAa?$AAt?$AAl?$AAT?$AAr?$AAa?$AAc?$AAe?$AAE?$AAx?$AAc?$AAe?$AAp?$AAt?$AAi@ ; `string'
PUBLIC	?atlTraceTime@ATL@@3V?$CTraceCategoryEx@$0EAAA@$0A@@1@A ; ATL::atlTraceTime
PUBLIC	??_C@_1BK@NCJHOFCL@?$AAa?$AAt?$AAl?$AAT?$AAr?$AAa?$AAc?$AAe?$AAT?$AAi?$AAm?$AAe@ ; `string'
PUBLIC	?atlTraceCache@ATL@@3V?$CTraceCategoryEx@$0IAAA@$0A@@1@A ; ATL::atlTraceCache
PUBLIC	??_C@_1BM@GIKLHLFD@?$AAa?$AAt?$AAl?$AAT?$AAr?$AAa?$AAc?$AAe?$AAC?$AAa?$AAc?$AAh?$AAe@ ; `string'
PUBLIC	?atlTraceStencil@ATL@@3V?$CTraceCategoryEx@$0BAAAA@$0A@@1@A ; ATL::atlTraceStencil
PUBLIC	??_C@_1CA@PBPHANCD@?$AAa?$AAt?$AAl?$AAT?$AAr?$AAa?$AAc?$AAe?$AAS?$AAt?$AAe?$AAn?$AAc?$AAi?$AAl@ ; `string'
PUBLIC	?atlTraceString@ATL@@3V?$CTraceCategoryEx@$0CAAAA@$0A@@1@A ; ATL::atlTraceString
PUBLIC	??_C@_1BO@GMLILNDJ@?$AAa?$AAt?$AAl?$AAT?$AAr?$AAa?$AAc?$AAe?$AAS?$AAt?$AAr?$AAi?$AAn?$AAg@ ; `string'
PUBLIC	?atlTraceMap@ATL@@3V?$CTraceCategoryEx@$0EAAAA@$0A@@1@A ; ATL::atlTraceMap
PUBLIC	??_C@_1BI@OKDLCIEM@?$AAa?$AAt?$AAl?$AAT?$AAr?$AAa?$AAc?$AAe?$AAM?$AAa?$AAp@ ; `string'
PUBLIC	?atlTraceUtil@ATL@@3V?$CTraceCategoryEx@$0IAAAA@$0A@@1@A ; ATL::atlTraceUtil
PUBLIC	??_C@_1BK@DMHCKHHD@?$AAa?$AAt?$AAl?$AAT?$AAr?$AAa?$AAc?$AAe?$AAU?$AAt?$AAi?$AAl@ ; `string'
PUBLIC	?atlTraceSecurity@ATL@@3V?$CTraceCategoryEx@$0BAAAAA@$0A@@1@A ; ATL::atlTraceSecurity
PUBLIC	??_C@_1CC@DMMBNCFG@?$AAa?$AAt?$AAl?$AAT?$AAr?$AAa?$AAc?$AAe?$AAS?$AAe?$AAc?$AAu?$AAr?$AAi?$AAt@ ; `string'
PUBLIC	?atlTraceSync@ATL@@3V?$CTraceCategoryEx@$0CAAAAA@$0A@@1@A ; ATL::atlTraceSync
PUBLIC	??_C@_1BK@OPAPOCAL@?$AAa?$AAt?$AAl?$AAT?$AAr?$AAa?$AAc?$AAe?$AAS?$AAy?$AAn?$AAc@ ; `string'
PUBLIC	?atlTraceISAPI@ATL@@3V?$CTraceCategoryEx@$0EAAAAA@$0A@@1@A ; ATL::atlTraceISAPI
PUBLIC	??_C@_1BM@FHAEDBFK@?$AAa?$AAt?$AAl?$AAT?$AAr?$AAa?$AAc?$AAe?$AAI?$AAS?$AAA?$AAP?$AAI@ ; `string'
PUBLIC	?m_nLevel@CTrace@ATL@@1IA			; ATL::CTrace::m_nLevel
PUBLIC	?m_nCategory@CTrace@ATL@@1IA			; ATL::CTrace::m_nCategory
PUBLIC	?m_nLastCategory@CTrace@ATL@@1IA		; ATL::CTrace::m_nLastCategory
PUBLIC	?m_nMap@CTrace@ATL@@1PAUCategoryMap@12@A	; ATL::CTrace::m_nMap
PUBLIC	??_C@_1O@LFNDFEBP@?$AA?$CF?$AAl?$AAs?$AA?5?$AA?9?$AA?5@ ; `string'
PUBLIC	??_C@_1M@PGKOAACE@?$AA?$CF?$AAu?$AA?5?$AA?9?$AA?5@ ; `string'
PUBLIC	??_C@_1O@OAIPCDPO@?$AA?$CF?$AAl?$AAs?$AA?$CF?$AAl?$AAs@ ; `string'
PUBLIC	??_C@_17LGGGMOOB@?$AA?$CF?$AAh?$AAs@		; `string'
PUBLIC	??_C@_1EO@EBPPKGOM@?$AAf?$AAa?$AAl?$AAs?$AAe?$AA?5?$AA?$CG?$AA?$CG?$AA?5?$AA?$CC?$AAT?$AAo?$AAo?$AA?5?$AAm@ ; `string'
PUBLIC	??_C@_1LM@KAEPDMAH@?$AAD?$AA?3?$AA?2?$AAM?$AAi?$AAc?$AAr?$AAo?$AAs?$AAo?$AAf?$AAt?$AA?5?$AAV?$AAi@ ; `string'
PUBLIC	?m_bInitFailed@CAtlBaseModule@ATL@@2_NA		; ATL::CAtlBaseModule::m_bInitFailed
PUBLIC	??_C@_1LO@JCOFCHDK@?$AAD?$AA?3?$AA?2?$AAM?$AAi?$AAc?$AAr?$AAo?$AAs?$AAo?$AAf?$AAt?$AA?5?$AAV?$AAi@ ; `string'
PUBLIC	??_C@_1LK@HHCFJJEI@?$AAD?$AA?3?$AA?2?$AAM?$AAi?$AAc?$AAr?$AAo?$AAs?$AAo?$AAf?$AAt?$AA?5?$AAV?$AAi@ ; `string'
PUBLIC	??_C@_0FN@LAAFIOOO@D?3?2Microsoft?5Visual?5Studio?22019@ ; `string'
PUBLIC	??_C@_1IA@KEEOONGN@?$AAE?$AAR?$AAR?$AAO?$AAR?$AA?5?$AA?3?$AA?5?$AAU?$AAn?$AAa?$AAb?$AAl?$AAe?$AA?5@ ; `string'
PUBLIC	?_AtlComModule@ATL@@3VCAtlComModule@1@A		; ATL::_AtlComModule
PUBLIC	?_AtlWinModule@ATL@@3VCAtlWinModule@1@A		; ATL::_AtlWinModule
PUBLIC	??_C@_11LOCGONAA@@				; `string'
PUBLIC	?__LINE__Var@?0??AtlWinModuleInit@ATL@@YGJPAU_ATL_WIN_MODULE70@2@@Z@4JA ; `ATL::AtlWinModuleInit'::`1'::__LINE__Var
PUBLIC	??_C@_1IG@OPJAFKJH@?$AAE?$AAR?$AAR?$AAO?$AAR?$AA?5?$AA?3?$AA?5?$AAU?$AAn?$AAa?$AAb?$AAl?$AAe?$AA?5@ ; `string'
PUBLIC	??_C@_19LELMJPKF@?$AAe?$AAd?$AAi?$AAt@		; `string'
PUBLIC	??_C@_13NIHIEAGH@?$AAG@				; `string'
PUBLIC	??_C@_13PHJMHGG@?$AAL@				; `string'
PUBLIC	??_C@_13IABLFADB@?$AAH@				; `string'
PUBLIC	??_C@_13LPLPOHMK@?$AAR@				; `string'
PUBLIC	??_C@_13PNBDBPLL@?$AAA@				; `string'
PUBLIC	??_C@_17DLHNGEBC@?$AAH?$AAS?$AAL@		; `string'
PUBLIC	??_C@_17KOJOHOEP@?$AAR?$AAG?$AAB@		; `string'
PUBLIC	??_C@_15PMCGDJNJ@?$AAO?$AAK@			; `string'
PUBLIC	??_C@_1O@BBGMCBMK@?$AAC?$AAA?$AAN?$AAC?$AAE?$AAL@ ; `string'
PUBLIC	??_C@_17MGDNIAJI@?$AAR?$AAE?$AAD@		; `string'
PUBLIC	??_C@_15FPHCHCFA@?$AA?$CF?$AAi@			; `string'
PUBLIC	??_C@_1M@DIBDEJMC@?$AAG?$AAR?$AAE?$AAE?$AAN@	; `string'
PUBLIC	??_C@_19IIBKGPN@?$AAB?$AAL?$AAU?$AAE@		; `string'
PUBLIC	??_C@_17JACMMIIF@?$AAH?$AAU?$AAE@		; `string'
PUBLIC	??_C@_17MBBPJFIP@?$AAS?$AAA?$AAT@		; `string'
PUBLIC	??_C@_1M@FHNADEIL@?$AAL?$AAI?$AAG?$AAH?$AAT@	; `string'
PUBLIC	??_C@_1M@DOOPGBLO@?$AAA?$AAL?$AAP?$AAH?$AAA@	; `string'
PUBLIC	??_C@_19LKCICPAE@?$AA?$CF?$AAi?$AA?$CF?$AA?$CF@	; `string'
PUBLIC	__GUID_b859ee5a_d838_4b5b_a2e8_1adc7d93db48
PUBLIC	??_C@_0EB@OAIDDNB@?$AB?$AA?$PP?$PP?$AA?$AA?$AA?$AA?$AA?$AA?$AA?$AAH?$AI?$AI?$IA?$AA?$AA?$AA?$AA?$AA?$AA?$CB?$AC?z?$AA?$AA?$AA?$AA?$AA?$AA@ ; `string'
PUBLIC	??_C@_1M@PBMEKDNI@?$AAC?$AAL?$AAA?$AAS?$AAS@	; `string'
PUBLIC	?prx@@3VCOLORPICK@@A				; prx
PUBLIC	??_C@_1BG@KBOCNCBA@?$AAD?$AA2?$AAD?$AAD?$AAe?$AAm?$AAo?$AAA?$AAp?$AAp@ ; `string'
PUBLIC	??_C@_1GI@HJJBOMF@?$AAD?$AAe?$AAm?$AAo?$AAn?$AAs?$AAt?$AAr?$AAa?$AAc?$AAe?$AA?5?$AAr?$AAe?$AAl@ ; `string'
PUBLIC	??_C@_1CI@MADGDFGA@?$AAC?$AAo?$AAl?$AAl?$AAi?$AAs?$AAi?$AAo?$AAn?$AA?5?$AAd?$AAe?$AAt?$AAe?$AAc@ ; `string'
PUBLIC	??_C@_0BO@PFKOHNJC@vector?5subscript?5out?5of?5range@ ; `string'
PUBLIC	??_C@_0FD@COPLKMDI@D?3?2Microsoft?5Visual?5Studio?22019@ ; `string'
PUBLIC	??_C@_1KG@CEOCEOEM@?$AAD?$AA?3?$AA?2?$AAM?$AAi?$AAc?$AAr?$AAo?$AAs?$AAo?$AAf?$AAt?$AA?5?$AAV?$AAi@ ; `string'
PUBLIC	??_C@_1MK@FKANIDJF@?$AAs?$AAt?$AAd?$AA?3?$AA?3?$AAv?$AAe?$AAc?$AAt?$AAo?$AAr?$AA?$DM?$AAs?$AAt?$AAr@ ; `string'
PUBLIC	??_C@_1EA@LEKOKFNB@?$AA?$CC?$AAv?$AAe?$AAc?$AAt?$AAo?$AAr?$AA?5?$AAs?$AAu?$AAb?$AAs?$AAc?$AAr?$AAi@ ; `string'
PUBLIC	??_C@_19LMDLLIGP@?$AAp?$AA?$DN?$AA?$DN?$AA0@	; `string'
PUBLIC	??_C@_19JHCPJMAL@?$AAp?$AA?$CB?$AA?$DN?$AA0@	; `string'
PUBLIC	??_C@_1EA@JHMKKLFC@?$AAn?$AAI?$AAn?$AAd?$AAe?$AAx?$AA?5?$AA?$DO?$AA?$DN?$AA?5?$AA0?$AA?5?$AA?$CG?$AA?$CG?$AA?5@ ; `string'
PUBLIC	??_C@_1MC@BJDPJDEC@?$AAD?$AA?3?$AA?2?$AAM?$AAi?$AAc?$AAr?$AAo?$AAs?$AAo?$AAf?$AAt?$AA?5?$AAV?$AAi@ ; `string'
PUBLIC	??_C@_0FE@LCNAMHNP@D?3?2Microsoft?5Visual?5Studio?22019@ ; `string'
PUBLIC	??_C@_1KI@BCEOLJOE@?$AAD?$AA?3?$AA?2?$AAM?$AAi?$AAc?$AAr?$AAo?$AAs?$AAo?$AAf?$AAt?$AA?5?$AAV?$AAi@ ; `string'
PUBLIC	??_C@_0BA@FOIKENOD@vector?5too?5long@		; `string'
PUBLIC	??_C@_1BK@NHECDDNK@?$AAm?$AA_?$AAp?$AAD?$AAa?$AAt?$AAa?$AA?5?$AA?$DN?$AA?$DN?$AA?5?$AA0@ ; `string'
PUBLIC	?_Stinit@?1??_Init@?$basic_filebuf@_WU?$char_traits@_W@std@@@std@@IAEXPAU_iobuf@@W4_Initfl@23@@Z@4U_Mbstatet@@A ; `std::basic_filebuf<wchar_t,std::char_traits<wchar_t> >::_Init'::`2'::_Stinit
PUBLIC	?_Stinit@?1??_Init@?$basic_filebuf@DU?$char_traits@D@std@@@std@@IAEXPAU_iobuf@@W4_Initfl@23@@Z@4U_Mbstatet@@A ; `std::basic_filebuf<char,std::char_traits<char> >::_Init'::`2'::_Stinit
PUBLIC	??_C@_0BP@PFIPNLNI@front?$CI?$CJ?5called?5on?5empty?5string@ ; `string'
PUBLIC	??_C@_1LC@BJDDPGPA@?$AAs?$AAt?$AAd?$AA?3?$AA?3?$AAb?$AAa?$AAs?$AAi?$AAc?$AA_?$AAs?$AAt?$AAr?$AAi@ ; `string'
PUBLIC	??_C@_1EC@DINNLDHA@?$AA?$CC?$AAf?$AAr?$AAo?$AAn?$AAt?$AA?$CI?$AA?$CJ?$AA?5?$AAc?$AAa?$AAl?$AAl?$AAe?$AAd@ ; `string'
PUBLIC	??_C@_0BI@CFPLBAOH@invalid?5string?5position@	; `string'
PUBLIC	?_Psave@?$_Facetptr@V?$ctype@D@std@@@std@@2PBVfacet@locale@2@B ; std::_Facetptr<std::ctype<char> >::_Psave
PUBLIC	??_C@_0PC@KBJGOMJG@You?5cannot?5concatenate?5the?5same@ ; `string'
PUBLIC	??_C@_1CA@DFIMIFBJ@?$AAs?$AAt?$AAd?$AA?3?$AA?3?$AAo?$AAp?$AAe?$AAr?$AAa?$AAt?$AAo?$AAr?$AA?5?$AA?$CL@ ; `string'
PUBLIC	??_C@_1BPK@IDOEFEOL@?$AA?$CC?$AAY?$AAo?$AAu?$AA?5?$AAc?$AAa?$AAn?$AAn?$AAo?$AAt?$AA?5?$AAc?$AAo?$AAn@ ; `string'
PUBLIC	__GUID_06152247_6f50_465a_9245_118bfd3b6007
PUBLIC	?_Psave@?$_Facetptr@V?$codecvt@_WDU_Mbstatet@@@std@@@std@@2PBVfacet@locale@2@B ; std::_Facetptr<std::codecvt<wchar_t,char,_Mbstatet> >::_Psave
PUBLIC	?_Psave@?$_Facetptr@V?$codecvt@DDU_Mbstatet@@@std@@@std@@2PBVfacet@locale@2@B ; std::_Facetptr<std::codecvt<char,char,_Mbstatet> >::_Psave
PUBLIC	??_C@_0BJ@HAJGEHKO@transposed?5pointer?5range@	; `string'
PUBLIC	??_C@_0FF@MAKIMAC@D?3?2Microsoft?5Visual?5Studio?22019@ ; `string'
PUBLIC	??_C@_1KK@NJCNFCOG@?$AAD?$AA?3?$AA?2?$AAM?$AAi?$AAc?$AAr?$AAo?$AAs?$AAo?$AAf?$AAt?$AA?5?$AAV?$AAi@ ; `string'
PUBLIC	??_C@_1CG@LJCPDKEJ@?$AAs?$AAt?$AAd?$AA?3?$AA?3?$AA_?$AAV?$AAe?$AAr?$AAi?$AAf?$AAy?$AA_?$AAr?$AAa@ ; `string'
PUBLIC	??_C@_1DG@FJIKMGFD@?$AA?$CC?$AAt?$AAr?$AAa?$AAn?$AAs?$AAp?$AAo?$AAs?$AAe?$AAd?$AA?5?$AAp?$AAo?$AAi@ ; `string'
PUBLIC	??_C@_1EO@GFNCMDLA@?$AAs?$AAt?$AAd?$AA?3?$AA?3?$AA_?$AAA?$AAl?$AAl?$AAo?$AAc?$AAa?$AAt?$AAe?$AA_@ ; `string'
PUBLIC	??_R4?$basic_stringbuf@DU?$char_traits@D@std@@V?$allocator@D@2@@std@@6B@ ; std::basic_stringbuf<char,std::char_traits<char>,std::allocator<char> >::`RTTI Complete Object Locator'
PUBLIC	??_R0?AV?$basic_stringbuf@DU?$char_traits@D@std@@V?$allocator@D@2@@std@@@8 ; std::basic_stringbuf<char,std::char_traits<char>,std::allocator<char> > `RTTI Type Descriptor'
PUBLIC	??_R3?$basic_stringbuf@DU?$char_traits@D@std@@V?$allocator@D@2@@std@@8 ; std::basic_stringbuf<char,std::char_traits<char>,std::allocator<char> >::`RTTI Class Hierarchy Descriptor'
PUBLIC	??_R2?$basic_stringbuf@DU?$char_traits@D@std@@V?$allocator@D@2@@std@@8 ; std::basic_stringbuf<char,std::char_traits<char>,std::allocator<char> >::`RTTI Base Class Array'
PUBLIC	??_R1A@?0A@EA@?$basic_stringbuf@DU?$char_traits@D@std@@V?$allocator@D@2@@std@@8 ; std::basic_stringbuf<char,std::char_traits<char>,std::allocator<char> >::`RTTI Base Class Descriptor at (0,-1,0,64)'
PUBLIC	??_R1A@?0A@EA@?$basic_streambuf@DU?$char_traits@D@std@@@std@@8 ; std::basic_streambuf<char,std::char_traits<char> >::`RTTI Base Class Descriptor at (0,-1,0,64)'
PUBLIC	??_R0?AV?$basic_streambuf@DU?$char_traits@D@std@@@std@@@8 ; std::basic_streambuf<char,std::char_traits<char> > `RTTI Type Descriptor'
PUBLIC	??_R3?$basic_streambuf@DU?$char_traits@D@std@@@std@@8 ; std::basic_streambuf<char,std::char_traits<char> >::`RTTI Class Hierarchy Descriptor'
PUBLIC	??_R2?$basic_streambuf@DU?$char_traits@D@std@@@std@@8 ; std::basic_streambuf<char,std::char_traits<char> >::`RTTI Base Class Array'
PUBLIC	??_R4?$basic_istringstream@DU?$char_traits@D@std@@V?$allocator@D@2@@std@@6B@ ; std::basic_istringstream<char,std::char_traits<char>,std::allocator<char> >::`RTTI Complete Object Locator'
PUBLIC	??_R0?AV?$basic_istringstream@DU?$char_traits@D@std@@V?$allocator@D@2@@std@@@8 ; std::basic_istringstream<char,std::char_traits<char>,std::allocator<char> > `RTTI Type Descriptor'
PUBLIC	??_R3?$basic_istringstream@DU?$char_traits@D@std@@V?$allocator@D@2@@std@@8 ; std::basic_istringstream<char,std::char_traits<char>,std::allocator<char> >::`RTTI Class Hierarchy Descriptor'
PUBLIC	??_R2?$basic_istringstream@DU?$char_traits@D@std@@V?$allocator@D@2@@std@@8 ; std::basic_istringstream<char,std::char_traits<char>,std::allocator<char> >::`RTTI Base Class Array'
PUBLIC	??_R1A@?0A@EA@?$basic_istringstream@DU?$char_traits@D@std@@V?$allocator@D@2@@std@@8 ; std::basic_istringstream<char,std::char_traits<char>,std::allocator<char> >::`RTTI Base Class Descriptor at (0,-1,0,64)'
PUBLIC	??_R1A@?0A@EA@?$basic_istream@DU?$char_traits@D@std@@@std@@8 ; std::basic_istream<char,std::char_traits<char> >::`RTTI Base Class Descriptor at (0,-1,0,64)'
PUBLIC	??_R0?AV?$basic_istream@DU?$char_traits@D@std@@@std@@@8 ; std::basic_istream<char,std::char_traits<char> > `RTTI Type Descriptor'
PUBLIC	??_R3?$basic_istream@DU?$char_traits@D@std@@@std@@8 ; std::basic_istream<char,std::char_traits<char> >::`RTTI Class Hierarchy Descriptor'
PUBLIC	??_R2?$basic_istream@DU?$char_traits@D@std@@@std@@8 ; std::basic_istream<char,std::char_traits<char> >::`RTTI Base Class Array'
PUBLIC	??_R1A@A@3FA@?$basic_ios@DU?$char_traits@D@std@@@std@@8 ; std::basic_ios<char,std::char_traits<char> >::`RTTI Base Class Descriptor at (0,0,4,80)'
PUBLIC	??_R0?AV?$basic_ios@DU?$char_traits@D@std@@@std@@@8 ; std::basic_ios<char,std::char_traits<char> > `RTTI Type Descriptor'
PUBLIC	??_R3?$basic_ios@DU?$char_traits@D@std@@@std@@8	; std::basic_ios<char,std::char_traits<char> >::`RTTI Class Hierarchy Descriptor'
PUBLIC	??_R2?$basic_ios@DU?$char_traits@D@std@@@std@@8	; std::basic_ios<char,std::char_traits<char> >::`RTTI Base Class Array'
PUBLIC	??_R1A@?0A@EA@?$basic_ios@DU?$char_traits@D@std@@@std@@8 ; std::basic_ios<char,std::char_traits<char> >::`RTTI Base Class Descriptor at (0,-1,0,64)'
PUBLIC	??_R1A@?0A@EA@ios_base@std@@8			; std::ios_base::`RTTI Base Class Descriptor at (0,-1,0,64)'
PUBLIC	??_R0?AVios_base@std@@@8			; std::ios_base `RTTI Type Descriptor'
PUBLIC	??_R3ios_base@std@@8				; std::ios_base::`RTTI Class Hierarchy Descriptor'
PUBLIC	??_R2ios_base@std@@8				; std::ios_base::`RTTI Base Class Array'
PUBLIC	??_R17?0A@EA@?$_Iosb@H@std@@8			; std::_Iosb<int>::`RTTI Base Class Descriptor at (8,-1,0,64)'
PUBLIC	??_R0?AV?$_Iosb@H@std@@@8			; std::_Iosb<int> `RTTI Type Descriptor'
PUBLIC	??_R3?$_Iosb@H@std@@8				; std::_Iosb<int>::`RTTI Class Hierarchy Descriptor'
PUBLIC	??_R2?$_Iosb@H@std@@8				; std::_Iosb<int>::`RTTI Base Class Array'
PUBLIC	??_R1A@?0A@EA@?$_Iosb@H@std@@8			; std::_Iosb<int>::`RTTI Base Class Descriptor at (0,-1,0,64)'
PUBLIC	??_R1A@A@3EA@ios_base@std@@8			; std::ios_base::`RTTI Base Class Descriptor at (0,0,4,64)'
PUBLIC	??_R17A@3EA@?$_Iosb@H@std@@8			; std::_Iosb<int>::`RTTI Base Class Descriptor at (8,0,4,64)'
PUBLIC	??_R4?$basic_stringstream@DU?$char_traits@D@std@@V?$allocator@D@2@@std@@6B@ ; std::basic_stringstream<char,std::char_traits<char>,std::allocator<char> >::`RTTI Complete Object Locator'
PUBLIC	??_R0?AV?$basic_stringstream@DU?$char_traits@D@std@@V?$allocator@D@2@@std@@@8 ; std::basic_stringstream<char,std::char_traits<char>,std::allocator<char> > `RTTI Type Descriptor'
PUBLIC	??_R3?$basic_stringstream@DU?$char_traits@D@std@@V?$allocator@D@2@@std@@8 ; std::basic_stringstream<char,std::char_traits<char>,std::allocator<char> >::`RTTI Class Hierarchy Descriptor'
PUBLIC	??_R2?$basic_stringstream@DU?$char_traits@D@std@@V?$allocator@D@2@@std@@8 ; std::basic_stringstream<char,std::char_traits<char>,std::allocator<char> >::`RTTI Base Class Array'
PUBLIC	??_R1A@?0A@EA@?$basic_stringstream@DU?$char_traits@D@std@@V?$allocator@D@2@@std@@8 ; std::basic_stringstream<char,std::char_traits<char>,std::allocator<char> >::`RTTI Base Class Descriptor at (0,-1,0,64)'
PUBLIC	??_R1A@?0A@EA@?$basic_iostream@DU?$char_traits@D@std@@@std@@8 ; std::basic_iostream<char,std::char_traits<char> >::`RTTI Base Class Descriptor at (0,-1,0,64)'
PUBLIC	??_R0?AV?$basic_iostream@DU?$char_traits@D@std@@@std@@@8 ; std::basic_iostream<char,std::char_traits<char> > `RTTI Type Descriptor'
PUBLIC	??_R3?$basic_iostream@DU?$char_traits@D@std@@@std@@8 ; std::basic_iostream<char,std::char_traits<char> >::`RTTI Class Hierarchy Descriptor'
PUBLIC	??_R2?$basic_iostream@DU?$char_traits@D@std@@@std@@8 ; std::basic_iostream<char,std::char_traits<char> >::`RTTI Base Class Array'
PUBLIC	??_R1BA@?0A@EA@?$basic_ostream@DU?$char_traits@D@std@@@std@@8 ; std::basic_ostream<char,std::char_traits<char> >::`RTTI Base Class Descriptor at (16,-1,0,64)'
PUBLIC	??_R0?AV?$basic_ostream@DU?$char_traits@D@std@@@std@@@8 ; std::basic_ostream<char,std::char_traits<char> > `RTTI Type Descriptor'
PUBLIC	??_R3?$basic_ostream@DU?$char_traits@D@std@@@std@@8 ; std::basic_ostream<char,std::char_traits<char> >::`RTTI Class Hierarchy Descriptor'
PUBLIC	??_R2?$basic_ostream@DU?$char_traits@D@std@@@std@@8 ; std::basic_ostream<char,std::char_traits<char> >::`RTTI Base Class Array'
PUBLIC	??_R1A@?0A@EA@?$basic_ostream@DU?$char_traits@D@std@@@std@@8 ; std::basic_ostream<char,std::char_traits<char> >::`RTTI Base Class Descriptor at (0,-1,0,64)'
PUBLIC	??_R4?$basic_filebuf@DU?$char_traits@D@std@@@std@@6B@ ; std::basic_filebuf<char,std::char_traits<char> >::`RTTI Complete Object Locator'
PUBLIC	??_R0?AV?$basic_filebuf@DU?$char_traits@D@std@@@std@@@8 ; std::basic_filebuf<char,std::char_traits<char> > `RTTI Type Descriptor'
PUBLIC	??_R3?$basic_filebuf@DU?$char_traits@D@std@@@std@@8 ; std::basic_filebuf<char,std::char_traits<char> >::`RTTI Class Hierarchy Descriptor'
PUBLIC	??_R2?$basic_filebuf@DU?$char_traits@D@std@@@std@@8 ; std::basic_filebuf<char,std::char_traits<char> >::`RTTI Base Class Array'
PUBLIC	??_R1A@?0A@EA@?$basic_filebuf@DU?$char_traits@D@std@@@std@@8 ; std::basic_filebuf<char,std::char_traits<char> >::`RTTI Base Class Descriptor at (0,-1,0,64)'
PUBLIC	??_R4?$basic_ifstream@DU?$char_traits@D@std@@@std@@6B@ ; std::basic_ifstream<char,std::char_traits<char> >::`RTTI Complete Object Locator'
PUBLIC	??_R0?AV?$basic_ifstream@DU?$char_traits@D@std@@@std@@@8 ; std::basic_ifstream<char,std::char_traits<char> > `RTTI Type Descriptor'
PUBLIC	??_R3?$basic_ifstream@DU?$char_traits@D@std@@@std@@8 ; std::basic_ifstream<char,std::char_traits<char> >::`RTTI Class Hierarchy Descriptor'
PUBLIC	??_R2?$basic_ifstream@DU?$char_traits@D@std@@@std@@8 ; std::basic_ifstream<char,std::char_traits<char> >::`RTTI Base Class Array'
PUBLIC	??_R1A@?0A@EA@?$basic_ifstream@DU?$char_traits@D@std@@@std@@8 ; std::basic_ifstream<char,std::char_traits<char> >::`RTTI Base Class Descriptor at (0,-1,0,64)'
PUBLIC	??_R4?$basic_ofstream@DU?$char_traits@D@std@@@std@@6B@ ; std::basic_ofstream<char,std::char_traits<char> >::`RTTI Complete Object Locator'
PUBLIC	??_R0?AV?$basic_ofstream@DU?$char_traits@D@std@@@std@@@8 ; std::basic_ofstream<char,std::char_traits<char> > `RTTI Type Descriptor'
PUBLIC	??_R3?$basic_ofstream@DU?$char_traits@D@std@@@std@@8 ; std::basic_ofstream<char,std::char_traits<char> >::`RTTI Class Hierarchy Descriptor'
PUBLIC	??_R2?$basic_ofstream@DU?$char_traits@D@std@@@std@@8 ; std::basic_ofstream<char,std::char_traits<char> >::`RTTI Base Class Array'
PUBLIC	??_R1A@?0A@EA@?$basic_ofstream@DU?$char_traits@D@std@@@std@@8 ; std::basic_ofstream<char,std::char_traits<char> >::`RTTI Base Class Descriptor at (0,-1,0,64)'
PUBLIC	??_R4?$basic_filebuf@_WU?$char_traits@_W@std@@@std@@6B@ ; std::basic_filebuf<wchar_t,std::char_traits<wchar_t> >::`RTTI Complete Object Locator'
PUBLIC	??_R0?AV?$basic_filebuf@_WU?$char_traits@_W@std@@@std@@@8 ; std::basic_filebuf<wchar_t,std::char_traits<wchar_t> > `RTTI Type Descriptor'
PUBLIC	??_R3?$basic_filebuf@_WU?$char_traits@_W@std@@@std@@8 ; std::basic_filebuf<wchar_t,std::char_traits<wchar_t> >::`RTTI Class Hierarchy Descriptor'
PUBLIC	??_R2?$basic_filebuf@_WU?$char_traits@_W@std@@@std@@8 ; std::basic_filebuf<wchar_t,std::char_traits<wchar_t> >::`RTTI Base Class Array'
PUBLIC	??_R1A@?0A@EA@?$basic_filebuf@_WU?$char_traits@_W@std@@@std@@8 ; std::basic_filebuf<wchar_t,std::char_traits<wchar_t> >::`RTTI Base Class Descriptor at (0,-1,0,64)'
PUBLIC	??_R1A@?0A@EA@?$basic_streambuf@_WU?$char_traits@_W@std@@@std@@8 ; std::basic_streambuf<wchar_t,std::char_traits<wchar_t> >::`RTTI Base Class Descriptor at (0,-1,0,64)'
PUBLIC	??_R0?AV?$basic_streambuf@_WU?$char_traits@_W@std@@@std@@@8 ; std::basic_streambuf<wchar_t,std::char_traits<wchar_t> > `RTTI Type Descriptor'
PUBLIC	??_R3?$basic_streambuf@_WU?$char_traits@_W@std@@@std@@8 ; std::basic_streambuf<wchar_t,std::char_traits<wchar_t> >::`RTTI Class Hierarchy Descriptor'
PUBLIC	??_R2?$basic_streambuf@_WU?$char_traits@_W@std@@@std@@8 ; std::basic_streambuf<wchar_t,std::char_traits<wchar_t> >::`RTTI Base Class Array'
PUBLIC	??_R4?$basic_ofstream@_WU?$char_traits@_W@std@@@std@@6B@ ; std::basic_ofstream<wchar_t,std::char_traits<wchar_t> >::`RTTI Complete Object Locator'
PUBLIC	??_R0?AV?$basic_ofstream@_WU?$char_traits@_W@std@@@std@@@8 ; std::basic_ofstream<wchar_t,std::char_traits<wchar_t> > `RTTI Type Descriptor'
PUBLIC	??_R3?$basic_ofstream@_WU?$char_traits@_W@std@@@std@@8 ; std::basic_ofstream<wchar_t,std::char_traits<wchar_t> >::`RTTI Class Hierarchy Descriptor'
PUBLIC	??_R2?$basic_ofstream@_WU?$char_traits@_W@std@@@std@@8 ; std::basic_ofstream<wchar_t,std::char_traits<wchar_t> >::`RTTI Base Class Array'
PUBLIC	??_R1A@?0A@EA@?$basic_ofstream@_WU?$char_traits@_W@std@@@std@@8 ; std::basic_ofstream<wchar_t,std::char_traits<wchar_t> >::`RTTI Base Class Descriptor at (0,-1,0,64)'
PUBLIC	??_R1A@?0A@EA@?$basic_ostream@_WU?$char_traits@_W@std@@@std@@8 ; std::basic_ostream<wchar_t,std::char_traits<wchar_t> >::`RTTI Base Class Descriptor at (0,-1,0,64)'
PUBLIC	??_R0?AV?$basic_ostream@_WU?$char_traits@_W@std@@@std@@@8 ; std::basic_ostream<wchar_t,std::char_traits<wchar_t> > `RTTI Type Descriptor'
PUBLIC	??_R3?$basic_ostream@_WU?$char_traits@_W@std@@@std@@8 ; std::basic_ostream<wchar_t,std::char_traits<wchar_t> >::`RTTI Class Hierarchy Descriptor'
PUBLIC	??_R2?$basic_ostream@_WU?$char_traits@_W@std@@@std@@8 ; std::basic_ostream<wchar_t,std::char_traits<wchar_t> >::`RTTI Base Class Array'
PUBLIC	??_R1A@A@3FA@?$basic_ios@_WU?$char_traits@_W@std@@@std@@8 ; std::basic_ios<wchar_t,std::char_traits<wchar_t> >::`RTTI Base Class Descriptor at (0,0,4,80)'
PUBLIC	??_R0?AV?$basic_ios@_WU?$char_traits@_W@std@@@std@@@8 ; std::basic_ios<wchar_t,std::char_traits<wchar_t> > `RTTI Type Descriptor'
PUBLIC	??_R3?$basic_ios@_WU?$char_traits@_W@std@@@std@@8 ; std::basic_ios<wchar_t,std::char_traits<wchar_t> >::`RTTI Class Hierarchy Descriptor'
PUBLIC	??_R2?$basic_ios@_WU?$char_traits@_W@std@@@std@@8 ; std::basic_ios<wchar_t,std::char_traits<wchar_t> >::`RTTI Base Class Array'
PUBLIC	??_R1A@?0A@EA@?$basic_ios@_WU?$char_traits@_W@std@@@std@@8 ; std::basic_ios<wchar_t,std::char_traits<wchar_t> >::`RTTI Base Class Descriptor at (0,-1,0,64)'
PUBLIC	??_R4exception@std@@6B@				; std::exception::`RTTI Complete Object Locator'
PUBLIC	??_R3exception@std@@8				; std::exception::`RTTI Class Hierarchy Descriptor'
PUBLIC	??_R2exception@std@@8				; std::exception::`RTTI Base Class Array'
PUBLIC	??_R1A@?0A@EA@exception@std@@8			; std::exception::`RTTI Base Class Descriptor at (0,-1,0,64)'
PUBLIC	??_R4bad_alloc@std@@6B@				; std::bad_alloc::`RTTI Complete Object Locator'
PUBLIC	??_R3bad_alloc@std@@8				; std::bad_alloc::`RTTI Class Hierarchy Descriptor'
PUBLIC	??_R2bad_alloc@std@@8				; std::bad_alloc::`RTTI Base Class Array'
PUBLIC	??_R1A@?0A@EA@bad_alloc@std@@8			; std::bad_alloc::`RTTI Base Class Descriptor at (0,-1,0,64)'
PUBLIC	??_R4bad_array_new_length@std@@6B@		; std::bad_array_new_length::`RTTI Complete Object Locator'
PUBLIC	??_R3bad_array_new_length@std@@8		; std::bad_array_new_length::`RTTI Class Hierarchy Descriptor'
PUBLIC	??_R2bad_array_new_length@std@@8		; std::bad_array_new_length::`RTTI Base Class Array'
PUBLIC	??_R1A@?0A@EA@bad_array_new_length@std@@8	; std::bad_array_new_length::`RTTI Base Class Descriptor at (0,-1,0,64)'
PUBLIC	??_R4bad_cast@std@@6B@				; std::bad_cast::`RTTI Complete Object Locator'
PUBLIC	??_R3bad_cast@std@@8				; std::bad_cast::`RTTI Class Hierarchy Descriptor'
PUBLIC	??_R2bad_cast@std@@8				; std::bad_cast::`RTTI Base Class Array'
PUBLIC	??_R1A@?0A@EA@bad_cast@std@@8			; std::bad_cast::`RTTI Base Class Descriptor at (0,-1,0,64)'
PUBLIC	__real@00000000
PUBLIC	__real@0000000000000000
PUBLIC	__real@00800000
PUBLIC	__real@3c23d70a
PUBLIC	__real@3d75c28f
PUBLIC	__real@3dcccccd
PUBLIC	__real@3f000000
PUBLIC	__real@3f800000
PUBLIC	__real@3f91df46a2529d39
PUBLIC	__real@40000000
PUBLIC	__real@40400000
PUBLIC	__real@40800000
PUBLIC	__real@40a00000
PUBLIC	__real@40c00000
PUBLIC	__real@40c90e56
PUBLIC	__real@41200000
PUBLIC	__real@41700000
PUBLIC	__real@41a00000
PUBLIC	__real@41c80000
PUBLIC	__real@41f00000
PUBLIC	__real@42480000
PUBLIC	__real@42c00000
PUBLIC	__real@42c80000
PUBLIC	__real@42e60000
PUBLIC	__real@43480000
PUBLIC	__real@437a0000
PUBLIC	__real@437f0000
PUBLIC	__real@43b40000
PUBLIC	__real@43c80000
PUBLIC	__real@43f00000
PUBLIC	__real@44160000
PUBLIC	__real@44200000
PUBLIC	__real@44228000
PUBLIC	__real@44480000
PUBLIC	__real@447a0000
PUBLIC	__real@44834000
PUBLIC	__xmm@41f00000000000000000000000000000
PUBLIC	__xmm@80000000800000008000000080000000
EXTRN	??_L@YGXPAXIIP6EX0@Z1@Z:PROC			; `eh vector constructor iterator'
EXTRN	??_M@YGXPAXIIP6EX0@Z@Z:PROC			; `eh vector destructor iterator'
EXTRN	??2@YAPAXI@Z:PROC				; operator new
EXTRN	??3@YAXPAXI@Z:PROC				; operator delete
EXTRN	??_U@YAPAXI@Z:PROC				; operator new[]
EXTRN	??_V@YAXPAX@Z:PROC				; operator delete[]
EXTRN	_atexit:PROC
EXTRN	__imp___invalid_parameter:PROC
EXTRN	_memcpy:PROC
EXTRN	_memmove:PROC
EXTRN	_memset:PROC
EXTRN	__imp__wcscpy_s:PROC
EXTRN	__imp__wcslen:PROC
EXTRN	_strlen:PROC
EXTRN	__imp__DebugBreak@0:PROC
EXTRN	__imp__DecodePointer@4:PROC
EXTRN	__imp__RaiseException@16:PROC
EXTRN	__imp__GetLastError@0:PROC
EXTRN	__imp__SetLastError@4:PROC
EXTRN	__imp__HeapSetInformation@16:PROC
EXTRN	__imp__InitializeCriticalSectionEx@12:PROC
EXTRN	__imp__DeleteCriticalSection@4:PROC
EXTRN	__imp__GetModuleHandleW@4:PROC
EXTRN	__imp__GetPixel@12:PROC
EXTRN	__imp__GetStockObject@4:PROC
EXTRN	__imp__GetObjectW@12:PROC
EXTRN	__imp__GetMessageW@16:PROC
EXTRN	__imp__TranslateMessage@4:PROC
EXTRN	__imp__DispatchMessageW@4:PROC
EXTRN	__imp__SendMessageW@16:PROC
EXTRN	__imp__DefWindowProcW@16:PROC
EXTRN	__imp__PostQuitMessage@4:PROC
EXTRN	__imp__UnregisterClassW@8:PROC
EXTRN	__imp__RegisterClassExW@4:PROC
EXTRN	__imp__CreateWindowExW@48:PROC
EXTRN	__imp__IsWindow@4:PROC
EXTRN	__imp__DestroyWindow@4:PROC
EXTRN	__imp__ShowWindow@8:PROC
EXTRN	__imp__SetWindowPos@28:PROC
EXTRN	__imp__DialogBoxIndirectParamW@20:PROC
EXTRN	__imp__EndDialog@8:PROC
EXTRN	__imp__SetDlgItemInt@16:PROC
EXTRN	__imp__GetDlgItemInt@16:PROC
EXTRN	__imp__SetFocus@4:PROC
EXTRN	__imp__GetAsyncKeyState@4:PROC
EXTRN	__imp__SetCapture@4:PROC
EXTRN	__imp__ReleaseCapture@0:PROC
EXTRN	__imp__GetSystemMetrics@4:PROC
EXTRN	__imp__UpdateWindow@4:PROC
EXTRN	__imp__GetDCEx@12:PROC
EXTRN	__imp__ReleaseDC@8:PROC
EXTRN	__imp__BeginPaint@8:PROC
EXTRN	__imp__EndPaint@8:PROC
EXTRN	__imp__InvalidateRect@12:PROC
EXTRN	__imp__ValidateRect@8:PROC
EXTRN	__imp__GetClientRect@8:PROC
EXTRN	__imp__GetWindowRect@8:PROC
EXTRN	__imp__MessageBoxW@16:PROC
EXTRN	__imp__SetCursor@4:PROC
EXTRN	__imp__GetCursorPos@4:PROC
EXTRN	__imp__ScreenToClient@8:PROC
EXTRN	__imp__IntersectRect@12:PROC
EXTRN	__imp__GetWindowLongW@8:PROC
EXTRN	__imp__SetWindowLongW@12:PROC
EXTRN	__imp__GetDesktopWindow@0:PROC
EXTRN	__imp__LoadCursorW@8:PROC
EXTRN	__imp__GetDpiForWindow@4:PROC
EXTRN	__imp__MultiByteToWideChar@24:PROC
EXTRN	__imp__free:PROC
EXTRN	__imp__malloc:PROC
EXTRN	_labs:PROC
EXTRN	__imp__CoUninitialize@0:PROC
EXTRN	__imp__CoInitialize@4:PROC
EXTRN	__imp__ChooseColorW@4:PROC
EXTRN	__imp__fgetwc:PROC
EXTRN	__imp__fputwc:PROC
EXTRN	__imp__ungetwc:PROC
EXTRN	__imp____stdio_common_vswprintf:PROC
EXTRN	__imp____stdio_common_vswprintf_s:PROC
EXTRN	__imp____stdio_common_vsnwprintf_s:PROC
EXTRN	_atan:PROC
EXTRN	_cos:PROC
EXTRN	_pow:PROC
EXTRN	_sin:PROC
EXTRN	_sqrt:PROC
EXTRN	__imp__ceil:PROC
EXTRN	_D2D1CreateFactory@16:PROC
EXTRN	__imp__DWriteCreateFactory@12:PROC
EXTRN	__imp___CrtDbgReport:PROC
EXTRN	__imp___CrtDbgReportW:PROC
EXTRN	__imp_??0_Lockit@std@@QAE@H@Z:PROC
EXTRN	__imp_??1_Lockit@std@@QAE@XZ:PROC
EXTRN	__imp___get_stream_buffer_pointers:PROC
EXTRN	__imp__fclose:PROC
EXTRN	__imp__fflush:PROC
EXTRN	__imp__fgetc:PROC
EXTRN	__imp__fgetpos:PROC
EXTRN	__imp__fputc:PROC
EXTRN	__imp__fread:PROC
EXTRN	__imp__fsetpos:PROC
EXTRN	__imp___fseeki64:PROC
EXTRN	__imp__fwrite:PROC
EXTRN	__imp__setvbuf:PROC
EXTRN	__imp__ungetc:PROC
EXTRN	__imp___lock_file:PROC
EXTRN	__imp___unlock_file:PROC
EXTRN	?_Xbad_alloc@std@@YAXXZ:PROC			; std::_Xbad_alloc
EXTRN	?_Xlength_error@std@@YAXPBD@Z:PROC		; std::_Xlength_error
EXTRN	?_Xout_of_range@std@@YAXPBD@Z:PROC		; std::_Xout_of_range
EXTRN	?uncaught_exception@std@@YA_NXZ:PROC		; std::uncaught_exception
EXTRN	___std_exception_copy:PROC
EXTRN	___std_exception_destroy:PROC
EXTRN	??_Eexception@std@@UAEPAXI@Z:PROC		; std::exception::`vector deleting destructor'
EXTRN	??_Ebad_alloc@std@@UAEPAXI@Z:PROC		; std::bad_alloc::`vector deleting destructor'
EXTRN	??_Ebad_array_new_length@std@@UAEPAXI@Z:PROC	; std::bad_array_new_length::`vector deleting destructor'
EXTRN	??_Ebad_cast@std@@UAEPAXI@Z:PROC		; std::bad_cast::`vector deleting destructor'
EXTRN	?_Facet_Register@std@@YAXPAV_Facet_base@1@@Z:PROC ; std::_Facet_Register
EXTRN	__imp_??Bid@locale@std@@QAEIXZ:PROC
EXTRN	?_Getgloballocale@locale@std@@CAPAV_Locimp@12@XZ:PROC ; std::locale::_Getgloballocale
EXTRN	__imp_?always_noconv@codecvt_base@std@@QBE_NXZ:PROC
EXTRN	__imp_?in@?$codecvt@_WDU_Mbstatet@@@std@@QBEHAAU_Mbstatet@@PBD1AAPBDPA_W3AAPA_W@Z:PROC
EXTRN	__imp_?out@?$codecvt@_WDU_Mbstatet@@@std@@QBEHAAU_Mbstatet@@PB_W1AAPB_WPAD3AAPAD@Z:PROC
EXTRN	__imp_?unshift@?$codecvt@_WDU_Mbstatet@@@std@@QBEHAAU_Mbstatet@@PAD1AAPAD@Z:PROC
EXTRN	__imp_?_Getcat@?$codecvt@_WDU_Mbstatet@@@std@@SAIPAPBVfacet@locale@2@PBV42@@Z:PROC
EXTRN	__imp_?is@?$ctype@D@std@@QBE_NFD@Z:PROC
EXTRN	__imp_?_Getcat@?$ctype@D@std@@SAIPAPBVfacet@locale@2@PBV42@@Z:PROC
EXTRN	__imp_?in@?$codecvt@DDU_Mbstatet@@@std@@QBEHAAU_Mbstatet@@PBD1AAPBDPAD3AAPAD@Z:PROC
EXTRN	__imp_?out@?$codecvt@DDU_Mbstatet@@@std@@QBEHAAU_Mbstatet@@PBD1AAPBDPAD3AAPAD@Z:PROC
EXTRN	__imp_?unshift@?$codecvt@DDU_Mbstatet@@@std@@QBEHAAU_Mbstatet@@PAD1AAPAD@Z:PROC
EXTRN	__imp_?_Getcat@?$codecvt@DDU_Mbstatet@@@std@@SAIPAPBVfacet@locale@2@PBV42@@Z:PROC
EXTRN	__imp_?good@ios_base@std@@QBE_NXZ:PROC
EXTRN	__imp_?flags@ios_base@std@@QBEHXZ:PROC
EXTRN	__imp_?width@ios_base@std@@QBE_JXZ:PROC
EXTRN	__imp_?width@ios_base@std@@QAE_J_J@Z:PROC
EXTRN	__imp_?getloc@ios_base@std@@QBE?AVlocale@2@XZ:PROC
EXTRN	__imp_??0?$basic_streambuf@DU?$char_traits@D@std@@@std@@IAE@XZ:PROC
EXTRN	__imp_??1?$basic_streambuf@DU?$char_traits@D@std@@@std@@UAE@XZ:PROC
EXTRN	__imp_?getloc@?$basic_streambuf@DU?$char_traits@D@std@@@std@@QBE?AVlocale@2@XZ:PROC
EXTRN	__imp_?sbumpc@?$basic_streambuf@DU?$char_traits@D@std@@@std@@QAEHXZ:PROC
EXTRN	__imp_?sgetc@?$basic_streambuf@DU?$char_traits@D@std@@@std@@QAEHXZ:PROC
EXTRN	__imp_?snextc@?$basic_streambuf@DU?$char_traits@D@std@@@std@@QAEHXZ:PROC
EXTRN	__imp_?sputc@?$basic_streambuf@DU?$char_traits@D@std@@@std@@QAEHD@Z:PROC
EXTRN	__imp_?sputn@?$basic_streambuf@DU?$char_traits@D@std@@@std@@QAE_JPBD_J@Z:PROC
EXTRN	__imp_?eback@?$basic_streambuf@DU?$char_traits@D@std@@@std@@IBEPADXZ:PROC
EXTRN	__imp_?gptr@?$basic_streambuf@DU?$char_traits@D@std@@@std@@IBEPADXZ:PROC
EXTRN	__imp_?pptr@?$basic_streambuf@DU?$char_traits@D@std@@@std@@IBEPADXZ:PROC
EXTRN	__imp_?egptr@?$basic_streambuf@DU?$char_traits@D@std@@@std@@IBEPADXZ:PROC
EXTRN	__imp_?gbump@?$basic_streambuf@DU?$char_traits@D@std@@@std@@IAEXH@Z:PROC
EXTRN	__imp_?setg@?$basic_streambuf@DU?$char_traits@D@std@@@std@@IAEXPAD00@Z:PROC
EXTRN	__imp_?epptr@?$basic_streambuf@DU?$char_traits@D@std@@@std@@IBEPADXZ:PROC
EXTRN	__imp_?_Gndec@?$basic_streambuf@DU?$char_traits@D@std@@@std@@IAEPADXZ:PROC
EXTRN	__imp_?_Gninc@?$basic_streambuf@DU?$char_traits@D@std@@@std@@IAEPADXZ:PROC
EXTRN	__imp_?_Gnavail@?$basic_streambuf@DU?$char_traits@D@std@@@std@@IBE_JXZ:PROC
EXTRN	__imp_?pbump@?$basic_streambuf@DU?$char_traits@D@std@@@std@@IAEXH@Z:PROC
EXTRN	__imp_?setp@?$basic_streambuf@DU?$char_traits@D@std@@@std@@IAEXPAD0@Z:PROC
EXTRN	__imp_?setp@?$basic_streambuf@DU?$char_traits@D@std@@@std@@IAEXPAD00@Z:PROC
EXTRN	__imp_?_Pninc@?$basic_streambuf@DU?$char_traits@D@std@@@std@@IAEPADXZ:PROC
EXTRN	__imp_?_Pnavail@?$basic_streambuf@DU?$char_traits@D@std@@@std@@IBE_JXZ:PROC
EXTRN	__imp_?_Init@?$basic_streambuf@DU?$char_traits@D@std@@@std@@IAEXXZ:PROC
EXTRN	__imp_?_Init@?$basic_streambuf@DU?$char_traits@D@std@@@std@@IAEXPAPAD0PAH001@Z:PROC
EXTRN	__imp_?xsgetn@?$basic_streambuf@DU?$char_traits@D@std@@@std@@MAE_JPAD_J@Z:PROC
EXTRN	__imp_?xsputn@?$basic_streambuf@DU?$char_traits@D@std@@@std@@MAE_JPBD_J@Z:PROC
EXTRN	__imp_??0?$basic_streambuf@_WU?$char_traits@_W@std@@@std@@IAE@XZ:PROC
EXTRN	__imp_??1?$basic_streambuf@_WU?$char_traits@_W@std@@@std@@UAE@XZ:PROC
EXTRN	__imp_?getloc@?$basic_streambuf@_WU?$char_traits@_W@std@@@std@@QBE?AVlocale@2@XZ:PROC
EXTRN	__imp_?sputc@?$basic_streambuf@_WU?$char_traits@_W@std@@@std@@QAEG_W@Z:PROC
EXTRN	__imp_?sputn@?$basic_streambuf@_WU?$char_traits@_W@std@@@std@@QAE_JPB_W_J@Z:PROC
EXTRN	__imp_?eback@?$basic_streambuf@_WU?$char_traits@_W@std@@@std@@IBEPA_WXZ:PROC
EXTRN	__imp_?gptr@?$basic_streambuf@_WU?$char_traits@_W@std@@@std@@IBEPA_WXZ:PROC
EXTRN	__imp_?pptr@?$basic_streambuf@_WU?$char_traits@_W@std@@@std@@IBEPA_WXZ:PROC
EXTRN	__imp_?egptr@?$basic_streambuf@_WU?$char_traits@_W@std@@@std@@IBEPA_WXZ:PROC
EXTRN	__imp_?setg@?$basic_streambuf@_WU?$char_traits@_W@std@@@std@@IAEXPA_W00@Z:PROC
EXTRN	__imp_?epptr@?$basic_streambuf@_WU?$char_traits@_W@std@@@std@@IBEPA_WXZ:PROC
EXTRN	__imp_?_Gndec@?$basic_streambuf@_WU?$char_traits@_W@std@@@std@@IAEPA_WXZ:PROC
EXTRN	__imp_?_Gninc@?$basic_streambuf@_WU?$char_traits@_W@std@@@std@@IAEPA_WXZ:PROC
EXTRN	__imp_?_Pninc@?$basic_streambuf@_WU?$char_traits@_W@std@@@std@@IAEPA_WXZ:PROC
EXTRN	__imp_?_Init@?$basic_streambuf@_WU?$char_traits@_W@std@@@std@@IAEXXZ:PROC
EXTRN	__imp_?_Init@?$basic_streambuf@_WU?$char_traits@_W@std@@@std@@IAEXPAPA_W0PAH001@Z:PROC
EXTRN	__imp_?xsgetn@?$basic_streambuf@_WU?$char_traits@_W@std@@@std@@MAE_JPA_W_J@Z:PROC
EXTRN	__imp_?xsputn@?$basic_streambuf@_WU?$char_traits@_W@std@@@std@@MAE_JPB_W_J@Z:PROC
EXTRN	__imp_??1?$basic_ios@DU?$char_traits@D@std@@@std@@UAE@XZ:PROC
EXTRN	__imp_?setstate@?$basic_ios@DU?$char_traits@D@std@@@std@@QAEXH_N@Z:PROC
EXTRN	__imp_?tie@?$basic_ios@DU?$char_traits@D@std@@@std@@QBEPAV?$basic_ostream@DU?$char_traits@D@std@@@2@XZ:PROC
EXTRN	__imp_?rdbuf@?$basic_ios@DU?$char_traits@D@std@@@std@@QBEPAV?$basic_streambuf@DU?$char_traits@D@std@@@2@XZ:PROC
EXTRN	__imp_?fill@?$basic_ios@DU?$char_traits@D@std@@@std@@QBEDXZ:PROC
EXTRN	__imp_?widen@?$basic_ios@DU?$char_traits@D@std@@@std@@QBEDD@Z:PROC
EXTRN	__imp_??0?$basic_ios@DU?$char_traits@D@std@@@std@@IAE@XZ:PROC
EXTRN	__imp_??1?$basic_ios@_WU?$char_traits@_W@std@@@std@@UAE@XZ:PROC
EXTRN	__imp_?setstate@?$basic_ios@_WU?$char_traits@_W@std@@@std@@QAEXH_N@Z:PROC
EXTRN	__imp_?tie@?$basic_ios@_WU?$char_traits@_W@std@@@std@@QBEPAV?$basic_ostream@_WU?$char_traits@_W@std@@@2@XZ:PROC
EXTRN	__imp_?rdbuf@?$basic_ios@_WU?$char_traits@_W@std@@@std@@QBEPAV?$basic_streambuf@_WU?$char_traits@_W@std@@@2@XZ:PROC
EXTRN	__imp_?fill@?$basic_ios@_WU?$char_traits@_W@std@@@std@@QBE_WXZ:PROC
EXTRN	__imp_?widen@?$basic_ios@_WU?$char_traits@_W@std@@@std@@QBE_WD@Z:PROC
EXTRN	__imp_??0?$basic_ios@_WU?$char_traits@_W@std@@@std@@IAE@XZ:PROC
EXTRN	__imp_??0?$basic_ostream@DU?$char_traits@D@std@@@std@@QAE@PAV?$basic_streambuf@DU?$char_traits@D@std@@@1@_N@Z:PROC
EXTRN	__imp_??1?$basic_ostream@DU?$char_traits@D@std@@@std@@UAE@XZ:PROC
EXTRN	__imp_?_Osfx@?$basic_ostream@DU?$char_traits@D@std@@@std@@QAEXXZ:PROC
EXTRN	__imp_??6?$basic_ostream@DU?$char_traits@D@std@@@std@@QAEAAV01@P6AAAV01@AAV01@@Z@Z:PROC
EXTRN	__imp_?put@?$basic_ostream@DU?$char_traits@D@std@@@std@@QAEAAV12@D@Z:PROC
EXTRN	__imp_?flush@?$basic_ostream@DU?$char_traits@D@std@@@std@@QAEAAV12@XZ:PROC
EXTRN	__imp_??0?$basic_ostream@_WU?$char_traits@_W@std@@@std@@QAE@PAV?$basic_streambuf@_WU?$char_traits@_W@std@@@1@_N@Z:PROC
EXTRN	__imp_??1?$basic_ostream@_WU?$char_traits@_W@std@@@std@@UAE@XZ:PROC
EXTRN	__imp_?_Osfx@?$basic_ostream@_WU?$char_traits@_W@std@@@std@@QAEXXZ:PROC
EXTRN	__imp_??6?$basic_ostream@_WU?$char_traits@_W@std@@@std@@QAEAAV01@P6AAAV01@AAV01@@Z@Z:PROC
EXTRN	__imp_?put@?$basic_ostream@_WU?$char_traits@_W@std@@@std@@QAEAAV12@_W@Z:PROC
EXTRN	__imp_?flush@?$basic_ostream@_WU?$char_traits@_W@std@@@std@@QAEAAV12@XZ:PROC
EXTRN	__imp_??0?$basic_istream@DU?$char_traits@D@std@@@std@@QAE@PAV?$basic_streambuf@DU?$char_traits@D@std@@@1@_N@Z:PROC
EXTRN	__imp_??1?$basic_istream@DU?$char_traits@D@std@@@std@@UAE@XZ:PROC
EXTRN	__imp_?_Ipfx@?$basic_istream@DU?$char_traits@D@std@@@std@@QAE_N_N@Z:PROC
EXTRN	__imp_??5?$basic_istream@DU?$char_traits@D@std@@@std@@QAEAAV01@AAH@Z:PROC
EXTRN	__imp_??0?$basic_iostream@DU?$char_traits@D@std@@@std@@QAE@PAV?$basic_streambuf@DU?$char_traits@D@std@@@1@@Z:PROC
EXTRN	__imp_??1?$basic_iostream@DU?$char_traits@D@std@@@std@@UAE@XZ:PROC
EXTRN	?_Fiopen@std@@YAPAU_iobuf@@PBDHH@Z:PROC		; std::_Fiopen
EXTRN	?_Fiopen@std@@YAPAU_iobuf@@PB_WHH@Z:PROC	; std::_Fiopen
EXTRN	__imp___wassert:PROC
EXTRN	??_E?$basic_stringbuf@DU?$char_traits@D@std@@V?$allocator@D@2@@std@@UAEPAXI@Z:PROC ; std::basic_stringbuf<char,std::char_traits<char>,std::allocator<char> >::`vector deleting destructor'
EXTRN	??_E?$basic_stringstream@DU?$char_traits@D@std@@V?$allocator@D@2@@std@@UAEPAXI@Z:PROC ; std::basic_stringstream<char,std::char_traits<char>,std::allocator<char> >::`vector deleting destructor'
EXTRN	??_E?$basic_istringstream@DU?$char_traits@D@std@@V?$allocator@D@2@@std@@UAEPAXI@Z:PROC ; std::basic_istringstream<char,std::char_traits<char>,std::allocator<char> >::`vector deleting destructor'
EXTRN	??_E?$basic_filebuf@DU?$char_traits@D@std@@@std@@UAEPAXI@Z:PROC ; std::basic_filebuf<char,std::char_traits<char> >::`vector deleting destructor'
EXTRN	??_E?$basic_ofstream@DU?$char_traits@D@std@@@std@@UAEPAXI@Z:PROC ; std::basic_ofstream<char,std::char_traits<char> >::`vector deleting destructor'
EXTRN	??_E?$basic_filebuf@_WU?$char_traits@_W@std@@@std@@UAEPAXI@Z:PROC ; std::basic_filebuf<wchar_t,std::char_traits<wchar_t> >::`vector deleting destructor'
EXTRN	??_E?$basic_ofstream@_WU?$char_traits@_W@std@@@std@@UAEPAXI@Z:PROC ; std::basic_ofstream<wchar_t,std::char_traits<wchar_t> >::`vector deleting destructor'
EXTRN	??_E?$basic_ifstream@DU?$char_traits@D@std@@@std@@UAEPAXI@Z:PROC ; std::basic_ifstream<char,std::char_traits<char> >::`vector deleting destructor'
EXTRN	?_Lock@?$basic_streambuf@DU?$char_traits@D@std@@@std@@UAEXXZ:PROC ; std::basic_streambuf<char,std::char_traits<char> >::_Lock
EXTRN	?_Unlock@?$basic_streambuf@DU?$char_traits@D@std@@@std@@UAEXXZ:PROC ; std::basic_streambuf<char,std::char_traits<char> >::_Unlock
EXTRN	?imbue@?$basic_streambuf@DU?$char_traits@D@std@@@std@@MAEXABVlocale@2@@Z:PROC ; std::basic_streambuf<char,std::char_traits<char> >::imbue
EXTRN	?setbuf@?$basic_streambuf@DU?$char_traits@D@std@@@std@@MAEPAV12@PAD_J@Z:PROC ; std::basic_streambuf<char,std::char_traits<char> >::setbuf
EXTRN	?showmanyc@?$basic_streambuf@DU?$char_traits@D@std@@@std@@MAE_JXZ:PROC ; std::basic_streambuf<char,std::char_traits<char> >::showmanyc
EXTRN	?showmanyc@?$basic_streambuf@_WU?$char_traits@_W@std@@@std@@MAE_JXZ:PROC ; std::basic_streambuf<wchar_t,std::char_traits<wchar_t> >::showmanyc
EXTRN	?sync@?$basic_streambuf@DU?$char_traits@D@std@@@std@@MAEHXZ:PROC ; std::basic_streambuf<char,std::char_traits<char> >::sync
EXTRN	?uflow@?$basic_streambuf@DU?$char_traits@D@std@@@std@@MAEHXZ:PROC ; std::basic_streambuf<char,std::char_traits<char> >::uflow
EXTRN	?xsgetn@?$basic_streambuf@DU?$char_traits@D@std@@@std@@MAE_JPAD_J@Z:PROC ; std::basic_streambuf<char,std::char_traits<char> >::xsgetn
EXTRN	?xsputn@?$basic_streambuf@DU?$char_traits@D@std@@@std@@MAE_JPBD_J@Z:PROC ; std::basic_streambuf<char,std::char_traits<char> >::xsputn
EXTRN	@_RTC_CheckStackVars@8:PROC
EXTRN	@__CheckForDebuggerJustMyCode@4:PROC
EXTRN	@__security_check_cookie@4:PROC
EXTRN	__CxxThrowException@8:PROC
EXTRN	__RTC_CheckEsp:PROC
EXTRN	__RTC_InitBase:PROC
EXTRN	__RTC_Shutdown:PROC
EXTRN	__RTC_UninitUse:PROC
EXTRN	___CxxFrameHandler3:PROC
EXTRN	__chkstk:PROC
EXTRN	__ftol2:PROC
EXTRN	__ftoui3:PROC
EXTRN	_memcpy:PROC
EXTRN	_memset:PROC
EXTRN	_GUID_WICPixelFormat32bppPBGRA:BYTE
EXTRN	??_7type_info@@6B@:QWORD			; type_info::`vftable'
EXTRN	__imp_?id@?$codecvt@_WDU_Mbstatet@@@std@@2V0locale@2@A:DWORD
EXTRN	__imp_?id@?$ctype@D@std@@2V0locale@2@A:DWORD
EXTRN	__imp_?id@?$codecvt@DDU_Mbstatet@@@std@@2V0locale@2@A:DWORD
EXTRN	?_AtlBaseModule@ATL@@3VCAtlBaseModule@1@A:BYTE	; ATL::_AtlBaseModule
EXTRN	___ImageBase:BYTE
EXTRN	___security_cookie:DWORD
EXTRN	__fltused:DWORD
;	COMDAT ?_OptionsStorage@?1??__local_stdio_printf_options@@9@4_KA
_BSS	SEGMENT
?_OptionsStorage@?1??__local_stdio_printf_options@@9@4_KA DQ 01H DUP (?) ; `__local_stdio_printf_options'::`2'::_OptionsStorage
_BSS	ENDS
_BSS	SEGMENT
?acrCustClr@?1??GetColorFromChooseColorDialog@@YA?AU_D3DCOLORVALUE@@XZ@4PAKA DD 010H DUP (?) ; `GetColorFromChooseColorDialog'::`2'::acrCustClr
?rgbCurrent@?1??GetColorFromChooseColorDialog@@YA?AU_D3DCOLORVALUE@@XZ@4KA DD 01H DUP (?) ; `GetColorFromChooseColorDialog'::`2'::rgbCurrent
?acrCustClr@?1??GetColorFromChooseColorDialog2@@YAKXZ@4PAKA DD 010H DUP (?) ; `GetColorFromChooseColorDialog2'::`2'::acrCustClr
?rgbCurrent@?1??GetColorFromChooseColorDialog2@@YAKXZ@4KA DD 01H DUP (?) ; `GetColorFromChooseColorDialog2'::`2'::rgbCurrent
_BSS	ENDS
;	COMDAT ?atlTraceGeneral@ATL@@3V?$CTraceCategoryEx@$00$0A@@1@A
_BSS	SEGMENT
?atlTraceGeneral@ATL@@3V?$CTraceCategoryEx@$00$0A@@1@A DD 01H DUP (?) ; ATL::atlTraceGeneral
_BSS	ENDS
;	COMDAT ?atlTraceCOM@ATL@@3V?$CTraceCategoryEx@$01$0A@@1@A
_BSS	SEGMENT
?atlTraceCOM@ATL@@3V?$CTraceCategoryEx@$01$0A@@1@A DD 01H DUP (?) ; ATL::atlTraceCOM
_BSS	ENDS
;	COMDAT ?atlTraceQI@ATL@@3V?$CTraceCategoryEx@$03$0A@@1@A
_BSS	SEGMENT
?atlTraceQI@ATL@@3V?$CTraceCategoryEx@$03$0A@@1@A DD 01H DUP (?) ; ATL::atlTraceQI
_BSS	ENDS
;	COMDAT ?atlTraceRegistrar@ATL@@3V?$CTraceCategoryEx@$07$0A@@1@A
_BSS	SEGMENT
?atlTraceRegistrar@ATL@@3V?$CTraceCategoryEx@$07$0A@@1@A DD 01H DUP (?) ; ATL::atlTraceRegistrar
_BSS	ENDS
;	COMDAT ?atlTraceRefcount@ATL@@3V?$CTraceCategoryEx@$0BA@$0A@@1@A
_BSS	SEGMENT
?atlTraceRefcount@ATL@@3V?$CTraceCategoryEx@$0BA@$0A@@1@A DD 01H DUP (?) ; ATL::atlTraceRefcount
_BSS	ENDS
;	COMDAT ?atlTraceWindowing@ATL@@3V?$CTraceCategoryEx@$0CA@$0A@@1@A
_BSS	SEGMENT
?atlTraceWindowing@ATL@@3V?$CTraceCategoryEx@$0CA@$0A@@1@A DD 01H DUP (?) ; ATL::atlTraceWindowing
_BSS	ENDS
;	COMDAT ?atlTraceControls@ATL@@3V?$CTraceCategoryEx@$0EA@$0A@@1@A
_BSS	SEGMENT
?atlTraceControls@ATL@@3V?$CTraceCategoryEx@$0EA@$0A@@1@A DD 01H DUP (?) ; ATL::atlTraceControls
_BSS	ENDS
;	COMDAT ?atlTraceHosting@ATL@@3V?$CTraceCategoryEx@$0IA@$0A@@1@A
_BSS	SEGMENT
?atlTraceHosting@ATL@@3V?$CTraceCategoryEx@$0IA@$0A@@1@A DD 01H DUP (?) ; ATL::atlTraceHosting
_BSS	ENDS
;	COMDAT ?atlTraceDBClient@ATL@@3V?$CTraceCategoryEx@$0BAA@$0A@@1@A
_BSS	SEGMENT
?atlTraceDBClient@ATL@@3V?$CTraceCategoryEx@$0BAA@$0A@@1@A DD 01H DUP (?) ; ATL::atlTraceDBClient
_BSS	ENDS
;	COMDAT ?atlTraceDBProvider@ATL@@3V?$CTraceCategoryEx@$0CAA@$0A@@1@A
_BSS	SEGMENT
?atlTraceDBProvider@ATL@@3V?$CTraceCategoryEx@$0CAA@$0A@@1@A DD 01H DUP (?) ; ATL::atlTraceDBProvider
_BSS	ENDS
;	COMDAT ?atlTraceSnapin@ATL@@3V?$CTraceCategoryEx@$0EAA@$0A@@1@A
_BSS	SEGMENT
?atlTraceSnapin@ATL@@3V?$CTraceCategoryEx@$0EAA@$0A@@1@A DD 01H DUP (?) ; ATL::atlTraceSnapin
_BSS	ENDS
;	COMDAT ?atlTraceNotImpl@ATL@@3V?$CTraceCategoryEx@$0IAA@$0A@@1@A
_BSS	SEGMENT
?atlTraceNotImpl@ATL@@3V?$CTraceCategoryEx@$0IAA@$0A@@1@A DD 01H DUP (?) ; ATL::atlTraceNotImpl
_BSS	ENDS
;	COMDAT ?atlTraceAllocation@ATL@@3V?$CTraceCategoryEx@$0BAAA@$0A@@1@A
_BSS	SEGMENT
?atlTraceAllocation@ATL@@3V?$CTraceCategoryEx@$0BAAA@$0A@@1@A DD 01H DUP (?) ; ATL::atlTraceAllocation
_BSS	ENDS
;	COMDAT ?atlTraceException@ATL@@3V?$CTraceCategoryEx@$0CAAA@$0A@@1@A
_BSS	SEGMENT
?atlTraceException@ATL@@3V?$CTraceCategoryEx@$0CAAA@$0A@@1@A DD 01H DUP (?) ; ATL::atlTraceException
_BSS	ENDS
;	COMDAT ?atlTraceTime@ATL@@3V?$CTraceCategoryEx@$0EAAA@$0A@@1@A
_BSS	SEGMENT
?atlTraceTime@ATL@@3V?$CTraceCategoryEx@$0EAAA@$0A@@1@A DD 01H DUP (?) ; ATL::atlTraceTime
_BSS	ENDS
;	COMDAT ?atlTraceCache@ATL@@3V?$CTraceCategoryEx@$0IAAA@$0A@@1@A
_BSS	SEGMENT
?atlTraceCache@ATL@@3V?$CTraceCategoryEx@$0IAAA@$0A@@1@A DD 01H DUP (?) ; ATL::atlTraceCache
_BSS	ENDS
;	COMDAT ?atlTraceStencil@ATL@@3V?$CTraceCategoryEx@$0BAAAA@$0A@@1@A
_BSS	SEGMENT
?atlTraceStencil@ATL@@3V?$CTraceCategoryEx@$0BAAAA@$0A@@1@A DD 01H DUP (?) ; ATL::atlTraceStencil
_BSS	ENDS
;	COMDAT ?atlTraceString@ATL@@3V?$CTraceCategoryEx@$0CAAAA@$0A@@1@A
_BSS	SEGMENT
?atlTraceString@ATL@@3V?$CTraceCategoryEx@$0CAAAA@$0A@@1@A DD 01H DUP (?) ; ATL::atlTraceString
_BSS	ENDS
;	COMDAT ?atlTraceMap@ATL@@3V?$CTraceCategoryEx@$0EAAAA@$0A@@1@A
_BSS	SEGMENT
?atlTraceMap@ATL@@3V?$CTraceCategoryEx@$0EAAAA@$0A@@1@A DD 01H DUP (?) ; ATL::atlTraceMap
_BSS	ENDS
;	COMDAT ?atlTraceUtil@ATL@@3V?$CTraceCategoryEx@$0IAAAA@$0A@@1@A
_BSS	SEGMENT
?atlTraceUtil@ATL@@3V?$CTraceCategoryEx@$0IAAAA@$0A@@1@A DD 01H DUP (?) ; ATL::atlTraceUtil
_BSS	ENDS
;	COMDAT ?atlTraceSecurity@ATL@@3V?$CTraceCategoryEx@$0BAAAAA@$0A@@1@A
_BSS	SEGMENT
?atlTraceSecurity@ATL@@3V?$CTraceCategoryEx@$0BAAAAA@$0A@@1@A DD 01H DUP (?) ; ATL::atlTraceSecurity
_BSS	ENDS
;	COMDAT ?atlTraceSync@ATL@@3V?$CTraceCategoryEx@$0CAAAAA@$0A@@1@A
_BSS	SEGMENT
?atlTraceSync@ATL@@3V?$CTraceCategoryEx@$0CAAAAA@$0A@@1@A DD 01H DUP (?) ; ATL::atlTraceSync
_BSS	ENDS
;	COMDAT ?atlTraceISAPI@ATL@@3V?$CTraceCategoryEx@$0EAAAAA@$0A@@1@A
_BSS	SEGMENT
?atlTraceISAPI@ATL@@3V?$CTraceCategoryEx@$0EAAAAA@$0A@@1@A DD 01H DUP (?) ; ATL::atlTraceISAPI
_BSS	ENDS
;	COMDAT ?m_nLevel@CTrace@ATL@@1IA
_BSS	SEGMENT
?m_nLevel@CTrace@ATL@@1IA DD 01H DUP (?)		; ATL::CTrace::m_nLevel
_BSS	ENDS
;	COMDAT ?m_nLastCategory@CTrace@ATL@@1IA
_BSS	SEGMENT
?m_nLastCategory@CTrace@ATL@@1IA DD 01H DUP (?)		; ATL::CTrace::m_nLastCategory
_BSS	ENDS
;	COMDAT ?m_nMap@CTrace@ATL@@1PAUCategoryMap@12@A
_BSS	SEGMENT
?m_nMap@CTrace@ATL@@1PAUCategoryMap@12@A DB 02080H DUP (?) ; ATL::CTrace::m_nMap
_BSS	ENDS
;	COMDAT ?m_bInitFailed@CAtlBaseModule@ATL@@2_NA
_BSS	SEGMENT
?m_bInitFailed@CAtlBaseModule@ATL@@2_NA DB 01H DUP (?)	; ATL::CAtlBaseModule::m_bInitFailed
_BSS	ENDS
;	COMDAT ?_AtlComModule@ATL@@3VCAtlComModule@1@A
_BSS	SEGMENT
?_AtlComModule@ATL@@3VCAtlComModule@1@A DB 028H DUP (?)	; ATL::_AtlComModule
_BSS	ENDS
;	COMDAT ?_AtlWinModule@ATL@@3VCAtlWinModule@1@A
_BSS	SEGMENT
?_AtlWinModule@ATL@@3VCAtlWinModule@1@A DB 02cH DUP (?)	; ATL::_AtlWinModule
_BSS	ENDS
_BSS	SEGMENT
?prx@@3VCOLORPICK@@A DB 0238H DUP (?)			; prx
_BSS	ENDS
;	COMDAT ?_Stinit@?1??_Init@?$basic_filebuf@_WU?$char_traits@_W@std@@@std@@IAEXPAU_iobuf@@W4_Initfl@23@@Z@4U_Mbstatet@@A
_BSS	SEGMENT
?_Stinit@?1??_Init@?$basic_filebuf@_WU?$char_traits@_W@std@@@std@@IAEXPAU_iobuf@@W4_Initfl@23@@Z@4U_Mbstatet@@A DQ 01H DUP (?) ; `std::basic_filebuf<wchar_t,std::char_traits<wchar_t> >::_Init'::`2'::_Stinit
_BSS	ENDS
;	COMDAT ?_Stinit@?1??_Init@?$basic_filebuf@DU?$char_traits@D@std@@@std@@IAEXPAU_iobuf@@W4_Initfl@23@@Z@4U_Mbstatet@@A
_BSS	SEGMENT
?_Stinit@?1??_Init@?$basic_filebuf@DU?$char_traits@D@std@@@std@@IAEXPAU_iobuf@@W4_Initfl@23@@Z@4U_Mbstatet@@A DQ 01H DUP (?) ; `std::basic_filebuf<char,std::char_traits<char> >::_Init'::`2'::_Stinit
_BSS	ENDS
;	COMDAT ?_Psave@?$_Facetptr@V?$ctype@D@std@@@std@@2PBVfacet@locale@2@B
_BSS	SEGMENT
?_Psave@?$_Facetptr@V?$ctype@D@std@@@std@@2PBVfacet@locale@2@B DD 01H DUP (?) ; std::_Facetptr<std::ctype<char> >::_Psave
_BSS	ENDS
;	COMDAT ?_Psave@?$_Facetptr@V?$codecvt@_WDU_Mbstatet@@@std@@@std@@2PBVfacet@locale@2@B
_BSS	SEGMENT
?_Psave@?$_Facetptr@V?$codecvt@_WDU_Mbstatet@@@std@@@std@@2PBVfacet@locale@2@B DD 01H DUP (?) ; std::_Facetptr<std::codecvt<wchar_t,char,_Mbstatet> >::_Psave
_BSS	ENDS
;	COMDAT ?_Psave@?$_Facetptr@V?$codecvt@DDU_Mbstatet@@@std@@@std@@2PBVfacet@locale@2@B
_BSS	SEGMENT
?_Psave@?$_Facetptr@V?$codecvt@DDU_Mbstatet@@@std@@@std@@2PBVfacet@locale@2@B DD 01H DUP (?) ; std::_Facetptr<std::codecvt<char,char,_Mbstatet> >::_Psave
_BSS	ENDS
;	COMDAT CRT$XCU
CRT$XCU	SEGMENT
?atlTraceGeneral$initializer$@ATL@@3P6AXXZA DD FLAT:??__EatlTraceGeneral@ATL@@YAXXZ ; ATL::atlTraceGeneral$initializer$
CRT$XCU	ENDS
;	COMDAT __xmm@80000000800000008000000080000000
CONST	SEGMENT
__xmm@80000000800000008000000080000000 DB 00H, 00H, 00H, 080H, 00H, 00H, 00H
	DB	080H, 00H, 00H, 00H, 080H, 00H, 00H, 00H, 080H
CONST	ENDS
;	COMDAT __xmm@41f00000000000000000000000000000
CONST	SEGMENT
__xmm@41f00000000000000000000000000000 DB 00H, 00H, 00H, 00H, 00H, 00H, 00H
	DB	00H, 00H, 00H, 00H, 00H, 00H, 00H, 0f0H, 'A'
CONST	ENDS
;	COMDAT __real@44834000
CONST	SEGMENT
__real@44834000 DD 044834000r			; 1050
CONST	ENDS
;	COMDAT __real@447a0000
CONST	SEGMENT
__real@447a0000 DD 0447a0000r			; 1000
CONST	ENDS
;	COMDAT __real@44480000
CONST	SEGMENT
__real@44480000 DD 044480000r			; 800
CONST	ENDS
;	COMDAT __real@44228000
CONST	SEGMENT
__real@44228000 DD 044228000r			; 650
CONST	ENDS
;	COMDAT __real@44200000
CONST	SEGMENT
__real@44200000 DD 044200000r			; 640
CONST	ENDS
;	COMDAT __real@44160000
CONST	SEGMENT
__real@44160000 DD 044160000r			; 600
CONST	ENDS
;	COMDAT __real@43f00000
CONST	SEGMENT
__real@43f00000 DD 043f00000r			; 480
CONST	ENDS
;	COMDAT __real@43c80000
CONST	SEGMENT
__real@43c80000 DD 043c80000r			; 400
CONST	ENDS
;	COMDAT __real@43b40000
CONST	SEGMENT
__real@43b40000 DD 043b40000r			; 360
CONST	ENDS
;	COMDAT __real@437f0000
CONST	SEGMENT
__real@437f0000 DD 0437f0000r			; 255
CONST	ENDS
;	COMDAT __real@437a0000
CONST	SEGMENT
__real@437a0000 DD 0437a0000r			; 250
CONST	ENDS
;	COMDAT __real@43480000
CONST	SEGMENT
__real@43480000 DD 043480000r			; 200
CONST	ENDS
;	COMDAT __real@42e60000
CONST	SEGMENT
__real@42e60000 DD 042e60000r			; 115
CONST	ENDS
;	COMDAT __real@42c80000
CONST	SEGMENT
__real@42c80000 DD 042c80000r			; 100
CONST	ENDS
;	COMDAT __real@42c00000
CONST	SEGMENT
__real@42c00000 DD 042c00000r			; 96
CONST	ENDS
;	COMDAT __real@42480000
CONST	SEGMENT
__real@42480000 DD 042480000r			; 50
CONST	ENDS
;	COMDAT __real@41f00000
CONST	SEGMENT
__real@41f00000 DD 041f00000r			; 30
CONST	ENDS
;	COMDAT __real@41c80000
CONST	SEGMENT
__real@41c80000 DD 041c80000r			; 25
CONST	ENDS
;	COMDAT __real@41a00000
CONST	SEGMENT
__real@41a00000 DD 041a00000r			; 20
CONST	ENDS
;	COMDAT __real@41700000
CONST	SEGMENT
__real@41700000 DD 041700000r			; 15
CONST	ENDS
;	COMDAT __real@41200000
CONST	SEGMENT
__real@41200000 DD 041200000r			; 10
CONST	ENDS
;	COMDAT __real@40c90e56
CONST	SEGMENT
__real@40c90e56 DD 040c90e56r			; 6.283
CONST	ENDS
;	COMDAT __real@40c00000
CONST	SEGMENT
__real@40c00000 DD 040c00000r			; 6
CONST	ENDS
;	COMDAT __real@40a00000
CONST	SEGMENT
__real@40a00000 DD 040a00000r			; 5
CONST	ENDS
;	COMDAT __real@40800000
CONST	SEGMENT
__real@40800000 DD 040800000r			; 4
CONST	ENDS
;	COMDAT __real@40400000
CONST	SEGMENT
__real@40400000 DD 040400000r			; 3
CONST	ENDS
;	COMDAT __real@40000000
CONST	SEGMENT
__real@40000000 DD 040000000r			; 2
CONST	ENDS
;	COMDAT __real@3f91df46a2529d39
CONST	SEGMENT
__real@3f91df46a2529d39 DQ 03f91df46a2529d39r	; 0.0174533
CONST	ENDS
;	COMDAT __real@3f800000
CONST	SEGMENT
__real@3f800000 DD 03f800000r			; 1
CONST	ENDS
;	COMDAT __real@3f000000
CONST	SEGMENT
__real@3f000000 DD 03f000000r			; 0.5
CONST	ENDS
;	COMDAT __real@3dcccccd
CONST	SEGMENT
__real@3dcccccd DD 03dcccccdr			; 0.1
CONST	ENDS
;	COMDAT __real@3d75c28f
CONST	SEGMENT
__real@3d75c28f DD 03d75c28fr			; 0.06
CONST	ENDS
;	COMDAT __real@3c23d70a
CONST	SEGMENT
__real@3c23d70a DD 03c23d70ar			; 0.01
CONST	ENDS
;	COMDAT __real@00800000
CONST	SEGMENT
__real@00800000 DD 000800000r			; 1.17549e-38
CONST	ENDS
;	COMDAT __real@0000000000000000
CONST	SEGMENT
__real@0000000000000000 DQ 00000000000000000r	; 0
CONST	ENDS
;	COMDAT __real@00000000
CONST	SEGMENT
__real@00000000 DD 000000000r			; 0
CONST	ENDS
;	COMDAT rtc$TMZ
rtc$TMZ	SEGMENT
__RTC_Shutdown.rtc$TMZ DD FLAT:__RTC_Shutdown
rtc$TMZ	ENDS
;	COMDAT rtc$IMZ
rtc$IMZ	SEGMENT
__RTC_InitBase.rtc$IMZ DD FLAT:__RTC_InitBase
rtc$IMZ	ENDS
;	COMDAT ??_R1A@?0A@EA@bad_cast@std@@8
rdata$r	SEGMENT
??_R1A@?0A@EA@bad_cast@std@@8 DD FLAT:??_R0?AVbad_cast@std@@@8 ; std::bad_cast::`RTTI Base Class Descriptor at (0,-1,0,64)'
	DD	01H
	DD	00H
	DD	0ffffffffH
	DD	00H
	DD	040H
	DD	FLAT:??_R3bad_cast@std@@8
rdata$r	ENDS
;	COMDAT ??_R2bad_cast@std@@8
rdata$r	SEGMENT
??_R2bad_cast@std@@8 DD FLAT:??_R1A@?0A@EA@bad_cast@std@@8 ; std::bad_cast::`RTTI Base Class Array'
	DD	FLAT:??_R1A@?0A@EA@exception@std@@8
rdata$r	ENDS
;	COMDAT ??_R3bad_cast@std@@8
rdata$r	SEGMENT
??_R3bad_cast@std@@8 DD 00H				; std::bad_cast::`RTTI Class Hierarchy Descriptor'
	DD	00H
	DD	02H
	DD	FLAT:??_R2bad_cast@std@@8
rdata$r	ENDS
;	COMDAT ??_R4bad_cast@std@@6B@
rdata$r	SEGMENT
??_R4bad_cast@std@@6B@ DD 00H				; std::bad_cast::`RTTI Complete Object Locator'
	DD	00H
	DD	00H
	DD	FLAT:??_R0?AVbad_cast@std@@@8
	DD	FLAT:??_R3bad_cast@std@@8
rdata$r	ENDS
;	COMDAT ??_R1A@?0A@EA@bad_array_new_length@std@@8
rdata$r	SEGMENT
??_R1A@?0A@EA@bad_array_new_length@std@@8 DD FLAT:??_R0?AVbad_array_new_length@std@@@8 ; std::bad_array_new_length::`RTTI Base Class Descriptor at (0,-1,0,64)'
	DD	02H
	DD	00H
	DD	0ffffffffH
	DD	00H
	DD	040H
	DD	FLAT:??_R3bad_array_new_length@std@@8
rdata$r	ENDS
;	COMDAT ??_R2bad_array_new_length@std@@8
rdata$r	SEGMENT
??_R2bad_array_new_length@std@@8 DD FLAT:??_R1A@?0A@EA@bad_array_new_length@std@@8 ; std::bad_array_new_length::`RTTI Base Class Array'
	DD	FLAT:??_R1A@?0A@EA@bad_alloc@std@@8
	DD	FLAT:??_R1A@?0A@EA@exception@std@@8
rdata$r	ENDS
;	COMDAT ??_R3bad_array_new_length@std@@8
rdata$r	SEGMENT
??_R3bad_array_new_length@std@@8 DD 00H			; std::bad_array_new_length::`RTTI Class Hierarchy Descriptor'
	DD	00H
	DD	03H
	DD	FLAT:??_R2bad_array_new_length@std@@8
rdata$r	ENDS
;	COMDAT ??_R4bad_array_new_length@std@@6B@
rdata$r	SEGMENT
??_R4bad_array_new_length@std@@6B@ DD 00H		; std::bad_array_new_length::`RTTI Complete Object Locator'
	DD	00H
	DD	00H
	DD	FLAT:??_R0?AVbad_array_new_length@std@@@8
	DD	FLAT:??_R3bad_array_new_length@std@@8
rdata$r	ENDS
;	COMDAT ??_R1A@?0A@EA@bad_alloc@std@@8
rdata$r	SEGMENT
??_R1A@?0A@EA@bad_alloc@std@@8 DD FLAT:??_R0?AVbad_alloc@std@@@8 ; std::bad_alloc::`RTTI Base Class Descriptor at (0,-1,0,64)'
	DD	01H
	DD	00H
	DD	0ffffffffH
	DD	00H
	DD	040H
	DD	FLAT:??_R3bad_alloc@std@@8
rdata$r	ENDS
;	COMDAT ??_R2bad_alloc@std@@8
rdata$r	SEGMENT
??_R2bad_alloc@std@@8 DD FLAT:??_R1A@?0A@EA@bad_alloc@std@@8 ; std::bad_alloc::`RTTI Base Class Array'
	DD	FLAT:??_R1A@?0A@EA@exception@std@@8
rdata$r	ENDS
;	COMDAT ??_R3bad_alloc@std@@8
rdata$r	SEGMENT
??_R3bad_alloc@std@@8 DD 00H				; std::bad_alloc::`RTTI Class Hierarchy Descriptor'
	DD	00H
	DD	02H
	DD	FLAT:??_R2bad_alloc@std@@8
rdata$r	ENDS
;	COMDAT ??_R4bad_alloc@std@@6B@
rdata$r	SEGMENT
??_R4bad_alloc@std@@6B@ DD 00H				; std::bad_alloc::`RTTI Complete Object Locator'
	DD	00H
	DD	00H
	DD	FLAT:??_R0?AVbad_alloc@std@@@8
	DD	FLAT:??_R3bad_alloc@std@@8
rdata$r	ENDS
;	COMDAT ??_R1A@?0A@EA@exception@std@@8
rdata$r	SEGMENT
??_R1A@?0A@EA@exception@std@@8 DD FLAT:??_R0?AVexception@std@@@8 ; std::exception::`RTTI Base Class Descriptor at (0,-1,0,64)'
	DD	00H
	DD	00H
	DD	0ffffffffH
	DD	00H
	DD	040H
	DD	FLAT:??_R3exception@std@@8
rdata$r	ENDS
;	COMDAT ??_R2exception@std@@8
rdata$r	SEGMENT
??_R2exception@std@@8 DD FLAT:??_R1A@?0A@EA@exception@std@@8 ; std::exception::`RTTI Base Class Array'
rdata$r	ENDS
;	COMDAT ??_R3exception@std@@8
rdata$r	SEGMENT
??_R3exception@std@@8 DD 00H				; std::exception::`RTTI Class Hierarchy Descriptor'
	DD	00H
	DD	01H
	DD	FLAT:??_R2exception@std@@8
rdata$r	ENDS
;	COMDAT ??_R4exception@std@@6B@
rdata$r	SEGMENT
??_R4exception@std@@6B@ DD 00H				; std::exception::`RTTI Complete Object Locator'
	DD	00H
	DD	00H
	DD	FLAT:??_R0?AVexception@std@@@8
	DD	FLAT:??_R3exception@std@@8
rdata$r	ENDS
;	COMDAT ??_R1A@?0A@EA@?$basic_ios@_WU?$char_traits@_W@std@@@std@@8
rdata$r	SEGMENT
??_R1A@?0A@EA@?$basic_ios@_WU?$char_traits@_W@std@@@std@@8 DD FLAT:??_R0?AV?$basic_ios@_WU?$char_traits@_W@std@@@std@@@8 ; std::basic_ios<wchar_t,std::char_traits<wchar_t> >::`RTTI Base Class Descriptor at (0,-1,0,64)'
	DD	02H
	DD	00H
	DD	0ffffffffH
	DD	00H
	DD	040H
	DD	FLAT:??_R3?$basic_ios@_WU?$char_traits@_W@std@@@std@@8
rdata$r	ENDS
;	COMDAT ??_R2?$basic_ios@_WU?$char_traits@_W@std@@@std@@8
rdata$r	SEGMENT
??_R2?$basic_ios@_WU?$char_traits@_W@std@@@std@@8 DD FLAT:??_R1A@?0A@EA@?$basic_ios@_WU?$char_traits@_W@std@@@std@@8 ; std::basic_ios<wchar_t,std::char_traits<wchar_t> >::`RTTI Base Class Array'
	DD	FLAT:??_R1A@?0A@EA@ios_base@std@@8
	DD	FLAT:??_R17?0A@EA@?$_Iosb@H@std@@8
rdata$r	ENDS
;	COMDAT ??_R3?$basic_ios@_WU?$char_traits@_W@std@@@std@@8
rdata$r	SEGMENT
??_R3?$basic_ios@_WU?$char_traits@_W@std@@@std@@8 DD 00H ; std::basic_ios<wchar_t,std::char_traits<wchar_t> >::`RTTI Class Hierarchy Descriptor'
	DD	00H
	DD	03H
	DD	FLAT:??_R2?$basic_ios@_WU?$char_traits@_W@std@@@std@@8
rdata$r	ENDS
;	COMDAT ??_R0?AV?$basic_ios@_WU?$char_traits@_W@std@@@std@@@8
data$rs	SEGMENT
??_R0?AV?$basic_ios@_WU?$char_traits@_W@std@@@std@@@8 DD FLAT:??_7type_info@@6B@ ; std::basic_ios<wchar_t,std::char_traits<wchar_t> > `RTTI Type Descriptor'
	DD	00H
	DB	'.?AV?$basic_ios@_WU?$char_traits@_W@std@@@std@@', 00H
data$rs	ENDS
;	COMDAT ??_R1A@A@3FA@?$basic_ios@_WU?$char_traits@_W@std@@@std@@8
rdata$r	SEGMENT
??_R1A@A@3FA@?$basic_ios@_WU?$char_traits@_W@std@@@std@@8 DD FLAT:??_R0?AV?$basic_ios@_WU?$char_traits@_W@std@@@std@@@8 ; std::basic_ios<wchar_t,std::char_traits<wchar_t> >::`RTTI Base Class Descriptor at (0,0,4,80)'
	DD	02H
	DD	00H
	DD	00H
	DD	04H
	DD	050H
	DD	FLAT:??_R3?$basic_ios@_WU?$char_traits@_W@std@@@std@@8
rdata$r	ENDS
;	COMDAT ??_R2?$basic_ostream@_WU?$char_traits@_W@std@@@std@@8
rdata$r	SEGMENT
??_R2?$basic_ostream@_WU?$char_traits@_W@std@@@std@@8 DD FLAT:??_R1A@?0A@EA@?$basic_ostream@_WU?$char_traits@_W@std@@@std@@8 ; std::basic_ostream<wchar_t,std::char_traits<wchar_t> >::`RTTI Base Class Array'
	DD	FLAT:??_R1A@A@3FA@?$basic_ios@_WU?$char_traits@_W@std@@@std@@8
	DD	FLAT:??_R1A@A@3EA@ios_base@std@@8
	DD	FLAT:??_R17A@3EA@?$_Iosb@H@std@@8
rdata$r	ENDS
;	COMDAT ??_R3?$basic_ostream@_WU?$char_traits@_W@std@@@std@@8
rdata$r	SEGMENT
??_R3?$basic_ostream@_WU?$char_traits@_W@std@@@std@@8 DD 00H ; std::basic_ostream<wchar_t,std::char_traits<wchar_t> >::`RTTI Class Hierarchy Descriptor'
	DD	00H
	DD	04H
	DD	FLAT:??_R2?$basic_ostream@_WU?$char_traits@_W@std@@@std@@8
rdata$r	ENDS
;	COMDAT ??_R0?AV?$basic_ostream@_WU?$char_traits@_W@std@@@std@@@8
data$rs	SEGMENT
??_R0?AV?$basic_ostream@_WU?$char_traits@_W@std@@@std@@@8 DD FLAT:??_7type_info@@6B@ ; std::basic_ostream<wchar_t,std::char_traits<wchar_t> > `RTTI Type Descriptor'
	DD	00H
	DB	'.?AV?$basic_ostream@_WU?$char_traits@_W@std@@@std@@', 00H
data$rs	ENDS
;	COMDAT ??_R1A@?0A@EA@?$basic_ostream@_WU?$char_traits@_W@std@@@std@@8
rdata$r	SEGMENT
??_R1A@?0A@EA@?$basic_ostream@_WU?$char_traits@_W@std@@@std@@8 DD FLAT:??_R0?AV?$basic_ostream@_WU?$char_traits@_W@std@@@std@@@8 ; std::basic_ostream<wchar_t,std::char_traits<wchar_t> >::`RTTI Base Class Descriptor at (0,-1,0,64)'
	DD	03H
	DD	00H
	DD	0ffffffffH
	DD	00H
	DD	040H
	DD	FLAT:??_R3?$basic_ostream@_WU?$char_traits@_W@std@@@std@@8
rdata$r	ENDS
;	COMDAT ??_R1A@?0A@EA@?$basic_ofstream@_WU?$char_traits@_W@std@@@std@@8
rdata$r	SEGMENT
??_R1A@?0A@EA@?$basic_ofstream@_WU?$char_traits@_W@std@@@std@@8 DD FLAT:??_R0?AV?$basic_ofstream@_WU?$char_traits@_W@std@@@std@@@8 ; std::basic_ofstream<wchar_t,std::char_traits<wchar_t> >::`RTTI Base Class Descriptor at (0,-1,0,64)'
	DD	04H
	DD	00H
	DD	0ffffffffH
	DD	00H
	DD	040H
	DD	FLAT:??_R3?$basic_ofstream@_WU?$char_traits@_W@std@@@std@@8
rdata$r	ENDS
;	COMDAT ??_R2?$basic_ofstream@_WU?$char_traits@_W@std@@@std@@8
rdata$r	SEGMENT
??_R2?$basic_ofstream@_WU?$char_traits@_W@std@@@std@@8 DD FLAT:??_R1A@?0A@EA@?$basic_ofstream@_WU?$char_traits@_W@std@@@std@@8 ; std::basic_ofstream<wchar_t,std::char_traits<wchar_t> >::`RTTI Base Class Array'
	DD	FLAT:??_R1A@?0A@EA@?$basic_ostream@_WU?$char_traits@_W@std@@@std@@8
	DD	FLAT:??_R1A@A@3FA@?$basic_ios@_WU?$char_traits@_W@std@@@std@@8
	DD	FLAT:??_R1A@A@3EA@ios_base@std@@8
	DD	FLAT:??_R17A@3EA@?$_Iosb@H@std@@8
rdata$r	ENDS
;	COMDAT ??_R3?$basic_ofstream@_WU?$char_traits@_W@std@@@std@@8
rdata$r	SEGMENT
??_R3?$basic_ofstream@_WU?$char_traits@_W@std@@@std@@8 DD 00H ; std::basic_ofstream<wchar_t,std::char_traits<wchar_t> >::`RTTI Class Hierarchy Descriptor'
	DD	00H
	DD	05H
	DD	FLAT:??_R2?$basic_ofstream@_WU?$char_traits@_W@std@@@std@@8
rdata$r	ENDS
;	COMDAT ??_R0?AV?$basic_ofstream@_WU?$char_traits@_W@std@@@std@@@8
data$rs	SEGMENT
??_R0?AV?$basic_ofstream@_WU?$char_traits@_W@std@@@std@@@8 DD FLAT:??_7type_info@@6B@ ; std::basic_ofstream<wchar_t,std::char_traits<wchar_t> > `RTTI Type Descriptor'
	DD	00H
	DB	'.?AV?$basic_ofstream@_WU?$char_traits@_W@std@@@std@@', 00H
data$rs	ENDS
;	COMDAT ??_R4?$basic_ofstream@_WU?$char_traits@_W@std@@@std@@6B@
rdata$r	SEGMENT
??_R4?$basic_ofstream@_WU?$char_traits@_W@std@@@std@@6B@ DD 00H ; std::basic_ofstream<wchar_t,std::char_traits<wchar_t> >::`RTTI Complete Object Locator'
	DD	068H
	DD	04H
	DD	FLAT:??_R0?AV?$basic_ofstream@_WU?$char_traits@_W@std@@@std@@@8
	DD	FLAT:??_R3?$basic_ofstream@_WU?$char_traits@_W@std@@@std@@8
rdata$r	ENDS
;	COMDAT ??_R2?$basic_streambuf@_WU?$char_traits@_W@std@@@std@@8
rdata$r	SEGMENT
??_R2?$basic_streambuf@_WU?$char_traits@_W@std@@@std@@8 DD FLAT:??_R1A@?0A@EA@?$basic_streambuf@_WU?$char_traits@_W@std@@@std@@8 ; std::basic_streambuf<wchar_t,std::char_traits<wchar_t> >::`RTTI Base Class Array'
rdata$r	ENDS
;	COMDAT ??_R3?$basic_streambuf@_WU?$char_traits@_W@std@@@std@@8
rdata$r	SEGMENT
??_R3?$basic_streambuf@_WU?$char_traits@_W@std@@@std@@8 DD 00H ; std::basic_streambuf<wchar_t,std::char_traits<wchar_t> >::`RTTI Class Hierarchy Descriptor'
	DD	00H
	DD	01H
	DD	FLAT:??_R2?$basic_streambuf@_WU?$char_traits@_W@std@@@std@@8
rdata$r	ENDS
;	COMDAT ??_R0?AV?$basic_streambuf@_WU?$char_traits@_W@std@@@std@@@8
data$rs	SEGMENT
??_R0?AV?$basic_streambuf@_WU?$char_traits@_W@std@@@std@@@8 DD FLAT:??_7type_info@@6B@ ; std::basic_streambuf<wchar_t,std::char_traits<wchar_t> > `RTTI Type Descriptor'
	DD	00H
	DB	'.?AV?$basic_streambuf@_WU?$char_traits@_W@std@@@std@@', 00H
data$rs	ENDS
;	COMDAT ??_R1A@?0A@EA@?$basic_streambuf@_WU?$char_traits@_W@std@@@std@@8
rdata$r	SEGMENT
??_R1A@?0A@EA@?$basic_streambuf@_WU?$char_traits@_W@std@@@std@@8 DD FLAT:??_R0?AV?$basic_streambuf@_WU?$char_traits@_W@std@@@std@@@8 ; std::basic_streambuf<wchar_t,std::char_traits<wchar_t> >::`RTTI Base Class Descriptor at (0,-1,0,64)'
	DD	00H
	DD	00H
	DD	0ffffffffH
	DD	00H
	DD	040H
	DD	FLAT:??_R3?$basic_streambuf@_WU?$char_traits@_W@std@@@std@@8
rdata$r	ENDS
;	COMDAT ??_R1A@?0A@EA@?$basic_filebuf@_WU?$char_traits@_W@std@@@std@@8
rdata$r	SEGMENT
??_R1A@?0A@EA@?$basic_filebuf@_WU?$char_traits@_W@std@@@std@@8 DD FLAT:??_R0?AV?$basic_filebuf@_WU?$char_traits@_W@std@@@std@@@8 ; std::basic_filebuf<wchar_t,std::char_traits<wchar_t> >::`RTTI Base Class Descriptor at (0,-1,0,64)'
	DD	01H
	DD	00H
	DD	0ffffffffH
	DD	00H
	DD	040H
	DD	FLAT:??_R3?$basic_filebuf@_WU?$char_traits@_W@std@@@std@@8
rdata$r	ENDS
;	COMDAT ??_R2?$basic_filebuf@_WU?$char_traits@_W@std@@@std@@8
rdata$r	SEGMENT
??_R2?$basic_filebuf@_WU?$char_traits@_W@std@@@std@@8 DD FLAT:??_R1A@?0A@EA@?$basic_filebuf@_WU?$char_traits@_W@std@@@std@@8 ; std::basic_filebuf<wchar_t,std::char_traits<wchar_t> >::`RTTI Base Class Array'
	DD	FLAT:??_R1A@?0A@EA@?$basic_streambuf@_WU?$char_traits@_W@std@@@std@@8
rdata$r	ENDS
;	COMDAT ??_R3?$basic_filebuf@_WU?$char_traits@_W@std@@@std@@8
rdata$r	SEGMENT
??_R3?$basic_filebuf@_WU?$char_traits@_W@std@@@std@@8 DD 00H ; std::basic_filebuf<wchar_t,std::char_traits<wchar_t> >::`RTTI Class Hierarchy Descriptor'
	DD	00H
	DD	02H
	DD	FLAT:??_R2?$basic_filebuf@_WU?$char_traits@_W@std@@@std@@8
rdata$r	ENDS
;	COMDAT ??_R0?AV?$basic_filebuf@_WU?$char_traits@_W@std@@@std@@@8
data$rs	SEGMENT
??_R0?AV?$basic_filebuf@_WU?$char_traits@_W@std@@@std@@@8 DD FLAT:??_7type_info@@6B@ ; std::basic_filebuf<wchar_t,std::char_traits<wchar_t> > `RTTI Type Descriptor'
	DD	00H
	DB	'.?AV?$basic_filebuf@_WU?$char_traits@_W@std@@@std@@', 00H
data$rs	ENDS
;	COMDAT ??_R4?$basic_filebuf@_WU?$char_traits@_W@std@@@std@@6B@
rdata$r	SEGMENT
??_R4?$basic_filebuf@_WU?$char_traits@_W@std@@@std@@6B@ DD 00H ; std::basic_filebuf<wchar_t,std::char_traits<wchar_t> >::`RTTI Complete Object Locator'
	DD	00H
	DD	00H
	DD	FLAT:??_R0?AV?$basic_filebuf@_WU?$char_traits@_W@std@@@std@@@8
	DD	FLAT:??_R3?$basic_filebuf@_WU?$char_traits@_W@std@@@std@@8
rdata$r	ENDS
;	COMDAT ??_R1A@?0A@EA@?$basic_ofstream@DU?$char_traits@D@std@@@std@@8
rdata$r	SEGMENT
??_R1A@?0A@EA@?$basic_ofstream@DU?$char_traits@D@std@@@std@@8 DD FLAT:??_R0?AV?$basic_ofstream@DU?$char_traits@D@std@@@std@@@8 ; std::basic_ofstream<char,std::char_traits<char> >::`RTTI Base Class Descriptor at (0,-1,0,64)'
	DD	04H
	DD	00H
	DD	0ffffffffH
	DD	00H
	DD	040H
	DD	FLAT:??_R3?$basic_ofstream@DU?$char_traits@D@std@@@std@@8
rdata$r	ENDS
;	COMDAT ??_R2?$basic_ofstream@DU?$char_traits@D@std@@@std@@8
rdata$r	SEGMENT
??_R2?$basic_ofstream@DU?$char_traits@D@std@@@std@@8 DD FLAT:??_R1A@?0A@EA@?$basic_ofstream@DU?$char_traits@D@std@@@std@@8 ; std::basic_ofstream<char,std::char_traits<char> >::`RTTI Base Class Array'
	DD	FLAT:??_R1A@?0A@EA@?$basic_ostream@DU?$char_traits@D@std@@@std@@8
	DD	FLAT:??_R1A@A@3FA@?$basic_ios@DU?$char_traits@D@std@@@std@@8
	DD	FLAT:??_R1A@A@3EA@ios_base@std@@8
	DD	FLAT:??_R17A@3EA@?$_Iosb@H@std@@8
rdata$r	ENDS
;	COMDAT ??_R3?$basic_ofstream@DU?$char_traits@D@std@@@std@@8
rdata$r	SEGMENT
??_R3?$basic_ofstream@DU?$char_traits@D@std@@@std@@8 DD 00H ; std::basic_ofstream<char,std::char_traits<char> >::`RTTI Class Hierarchy Descriptor'
	DD	00H
	DD	05H
	DD	FLAT:??_R2?$basic_ofstream@DU?$char_traits@D@std@@@std@@8
rdata$r	ENDS
;	COMDAT ??_R0?AV?$basic_ofstream@DU?$char_traits@D@std@@@std@@@8
data$rs	SEGMENT
??_R0?AV?$basic_ofstream@DU?$char_traits@D@std@@@std@@@8 DD FLAT:??_7type_info@@6B@ ; std::basic_ofstream<char,std::char_traits<char> > `RTTI Type Descriptor'
	DD	00H
	DB	'.?AV?$basic_ofstream@DU?$char_traits@D@std@@@std@@', 00H
data$rs	ENDS
;	COMDAT ??_R4?$basic_ofstream@DU?$char_traits@D@std@@@std@@6B@
rdata$r	SEGMENT
??_R4?$basic_ofstream@DU?$char_traits@D@std@@@std@@6B@ DD 00H ; std::basic_ofstream<char,std::char_traits<char> >::`RTTI Complete Object Locator'
	DD	068H
	DD	04H
	DD	FLAT:??_R0?AV?$basic_ofstream@DU?$char_traits@D@std@@@std@@@8
	DD	FLAT:??_R3?$basic_ofstream@DU?$char_traits@D@std@@@std@@8
rdata$r	ENDS
;	COMDAT ??_R1A@?0A@EA@?$basic_ifstream@DU?$char_traits@D@std@@@std@@8
rdata$r	SEGMENT
??_R1A@?0A@EA@?$basic_ifstream@DU?$char_traits@D@std@@@std@@8 DD FLAT:??_R0?AV?$basic_ifstream@DU?$char_traits@D@std@@@std@@@8 ; std::basic_ifstream<char,std::char_traits<char> >::`RTTI Base Class Descriptor at (0,-1,0,64)'
	DD	04H
	DD	00H
	DD	0ffffffffH
	DD	00H
	DD	040H
	DD	FLAT:??_R3?$basic_ifstream@DU?$char_traits@D@std@@@std@@8
rdata$r	ENDS
;	COMDAT ??_R2?$basic_ifstream@DU?$char_traits@D@std@@@std@@8
rdata$r	SEGMENT
??_R2?$basic_ifstream@DU?$char_traits@D@std@@@std@@8 DD FLAT:??_R1A@?0A@EA@?$basic_ifstream@DU?$char_traits@D@std@@@std@@8 ; std::basic_ifstream<char,std::char_traits<char> >::`RTTI Base Class Array'
	DD	FLAT:??_R1A@?0A@EA@?$basic_istream@DU?$char_traits@D@std@@@std@@8
	DD	FLAT:??_R1A@A@3FA@?$basic_ios@DU?$char_traits@D@std@@@std@@8
	DD	FLAT:??_R1A@A@3EA@ios_base@std@@8
	DD	FLAT:??_R17A@3EA@?$_Iosb@H@std@@8
rdata$r	ENDS
;	COMDAT ??_R3?$basic_ifstream@DU?$char_traits@D@std@@@std@@8
rdata$r	SEGMENT
??_R3?$basic_ifstream@DU?$char_traits@D@std@@@std@@8 DD 00H ; std::basic_ifstream<char,std::char_traits<char> >::`RTTI Class Hierarchy Descriptor'
	DD	00H
	DD	05H
	DD	FLAT:??_R2?$basic_ifstream@DU?$char_traits@D@std@@@std@@8
rdata$r	ENDS
;	COMDAT ??_R0?AV?$basic_ifstream@DU?$char_traits@D@std@@@std@@@8
data$rs	SEGMENT
??_R0?AV?$basic_ifstream@DU?$char_traits@D@std@@@std@@@8 DD FLAT:??_7type_info@@6B@ ; std::basic_ifstream<char,std::char_traits<char> > `RTTI Type Descriptor'
	DD	00H
	DB	'.?AV?$basic_ifstream@DU?$char_traits@D@std@@@std@@', 00H
data$rs	ENDS
;	COMDAT ??_R4?$basic_ifstream@DU?$char_traits@D@std@@@std@@6B@
rdata$r	SEGMENT
??_R4?$basic_ifstream@DU?$char_traits@D@std@@@std@@6B@ DD 00H ; std::basic_ifstream<char,std::char_traits<char> >::`RTTI Complete Object Locator'
	DD	070H
	DD	04H
	DD	FLAT:??_R0?AV?$basic_ifstream@DU?$char_traits@D@std@@@std@@@8
	DD	FLAT:??_R3?$basic_ifstream@DU?$char_traits@D@std@@@std@@8
rdata$r	ENDS
;	COMDAT ??_R1A@?0A@EA@?$basic_filebuf@DU?$char_traits@D@std@@@std@@8
rdata$r	SEGMENT
??_R1A@?0A@EA@?$basic_filebuf@DU?$char_traits@D@std@@@std@@8 DD FLAT:??_R0?AV?$basic_filebuf@DU?$char_traits@D@std@@@std@@@8 ; std::basic_filebuf<char,std::char_traits<char> >::`RTTI Base Class Descriptor at (0,-1,0,64)'
	DD	01H
	DD	00H
	DD	0ffffffffH
	DD	00H
	DD	040H
	DD	FLAT:??_R3?$basic_filebuf@DU?$char_traits@D@std@@@std@@8
rdata$r	ENDS
;	COMDAT ??_R2?$basic_filebuf@DU?$char_traits@D@std@@@std@@8
rdata$r	SEGMENT
??_R2?$basic_filebuf@DU?$char_traits@D@std@@@std@@8 DD FLAT:??_R1A@?0A@EA@?$basic_filebuf@DU?$char_traits@D@std@@@std@@8 ; std::basic_filebuf<char,std::char_traits<char> >::`RTTI Base Class Array'
	DD	FLAT:??_R1A@?0A@EA@?$basic_streambuf@DU?$char_traits@D@std@@@std@@8
rdata$r	ENDS
;	COMDAT ??_R3?$basic_filebuf@DU?$char_traits@D@std@@@std@@8
rdata$r	SEGMENT
??_R3?$basic_filebuf@DU?$char_traits@D@std@@@std@@8 DD 00H ; std::basic_filebuf<char,std::char_traits<char> >::`RTTI Class Hierarchy Descriptor'
	DD	00H
	DD	02H
	DD	FLAT:??_R2?$basic_filebuf@DU?$char_traits@D@std@@@std@@8
rdata$r	ENDS
;	COMDAT ??_R0?AV?$basic_filebuf@DU?$char_traits@D@std@@@std@@@8
data$rs	SEGMENT
??_R0?AV?$basic_filebuf@DU?$char_traits@D@std@@@std@@@8 DD FLAT:??_7type_info@@6B@ ; std::basic_filebuf<char,std::char_traits<char> > `RTTI Type Descriptor'
	DD	00H
	DB	'.?AV?$basic_filebuf@DU?$char_traits@D@std@@@std@@', 00H
data$rs	ENDS
;	COMDAT ??_R4?$basic_filebuf@DU?$char_traits@D@std@@@std@@6B@
rdata$r	SEGMENT
??_R4?$basic_filebuf@DU?$char_traits@D@std@@@std@@6B@ DD 00H ; std::basic_filebuf<char,std::char_traits<char> >::`RTTI Complete Object Locator'
	DD	00H
	DD	00H
	DD	FLAT:??_R0?AV?$basic_filebuf@DU?$char_traits@D@std@@@std@@@8
	DD	FLAT:??_R3?$basic_filebuf@DU?$char_traits@D@std@@@std@@8
rdata$r	ENDS
;	COMDAT ??_R1A@?0A@EA@?$basic_ostream@DU?$char_traits@D@std@@@std@@8
rdata$r	SEGMENT
??_R1A@?0A@EA@?$basic_ostream@DU?$char_traits@D@std@@@std@@8 DD FLAT:??_R0?AV?$basic_ostream@DU?$char_traits@D@std@@@std@@@8 ; std::basic_ostream<char,std::char_traits<char> >::`RTTI Base Class Descriptor at (0,-1,0,64)'
	DD	03H
	DD	00H
	DD	0ffffffffH
	DD	00H
	DD	040H
	DD	FLAT:??_R3?$basic_ostream@DU?$char_traits@D@std@@@std@@8
rdata$r	ENDS
;	COMDAT ??_R2?$basic_ostream@DU?$char_traits@D@std@@@std@@8
rdata$r	SEGMENT
??_R2?$basic_ostream@DU?$char_traits@D@std@@@std@@8 DD FLAT:??_R1A@?0A@EA@?$basic_ostream@DU?$char_traits@D@std@@@std@@8 ; std::basic_ostream<char,std::char_traits<char> >::`RTTI Base Class Array'
	DD	FLAT:??_R1A@A@3FA@?$basic_ios@DU?$char_traits@D@std@@@std@@8
	DD	FLAT:??_R1A@A@3EA@ios_base@std@@8
	DD	FLAT:??_R17A@3EA@?$_Iosb@H@std@@8
rdata$r	ENDS
;	COMDAT ??_R3?$basic_ostream@DU?$char_traits@D@std@@@std@@8
rdata$r	SEGMENT
??_R3?$basic_ostream@DU?$char_traits@D@std@@@std@@8 DD 00H ; std::basic_ostream<char,std::char_traits<char> >::`RTTI Class Hierarchy Descriptor'
	DD	00H
	DD	04H
	DD	FLAT:??_R2?$basic_ostream@DU?$char_traits@D@std@@@std@@8
rdata$r	ENDS
;	COMDAT ??_R0?AV?$basic_ostream@DU?$char_traits@D@std@@@std@@@8
data$rs	SEGMENT
??_R0?AV?$basic_ostream@DU?$char_traits@D@std@@@std@@@8 DD FLAT:??_7type_info@@6B@ ; std::basic_ostream<char,std::char_traits<char> > `RTTI Type Descriptor'
	DD	00H
	DB	'.?AV?$basic_ostream@DU?$char_traits@D@std@@@std@@', 00H
data$rs	ENDS
;	COMDAT ??_R1BA@?0A@EA@?$basic_ostream@DU?$char_traits@D@std@@@std@@8
rdata$r	SEGMENT
??_R1BA@?0A@EA@?$basic_ostream@DU?$char_traits@D@std@@@std@@8 DD FLAT:??_R0?AV?$basic_ostream@DU?$char_traits@D@std@@@std@@@8 ; std::basic_ostream<char,std::char_traits<char> >::`RTTI Base Class Descriptor at (16,-1,0,64)'
	DD	03H
	DD	010H
	DD	0ffffffffH
	DD	00H
	DD	040H
	DD	FLAT:??_R3?$basic_ostream@DU?$char_traits@D@std@@@std@@8
rdata$r	ENDS
;	COMDAT ??_R2?$basic_iostream@DU?$char_traits@D@std@@@std@@8
rdata$r	SEGMENT
??_R2?$basic_iostream@DU?$char_traits@D@std@@@std@@8 DD FLAT:??_R1A@?0A@EA@?$basic_iostream@DU?$char_traits@D@std@@@std@@8 ; std::basic_iostream<char,std::char_traits<char> >::`RTTI Base Class Array'
	DD	FLAT:??_R1A@?0A@EA@?$basic_istream@DU?$char_traits@D@std@@@std@@8
	DD	FLAT:??_R1A@A@3FA@?$basic_ios@DU?$char_traits@D@std@@@std@@8
	DD	FLAT:??_R1A@A@3EA@ios_base@std@@8
	DD	FLAT:??_R17A@3EA@?$_Iosb@H@std@@8
	DD	FLAT:??_R1BA@?0A@EA@?$basic_ostream@DU?$char_traits@D@std@@@std@@8
	DD	FLAT:??_R1A@A@3FA@?$basic_ios@DU?$char_traits@D@std@@@std@@8
	DD	FLAT:??_R1A@A@3EA@ios_base@std@@8
	DD	FLAT:??_R17A@3EA@?$_Iosb@H@std@@8
rdata$r	ENDS
;	COMDAT ??_R3?$basic_iostream@DU?$char_traits@D@std@@@std@@8
rdata$r	SEGMENT
??_R3?$basic_iostream@DU?$char_traits@D@std@@@std@@8 DD 00H ; std::basic_iostream<char,std::char_traits<char> >::`RTTI Class Hierarchy Descriptor'
	DD	03H
	DD	09H
	DD	FLAT:??_R2?$basic_iostream@DU?$char_traits@D@std@@@std@@8
rdata$r	ENDS
;	COMDAT ??_R0?AV?$basic_iostream@DU?$char_traits@D@std@@@std@@@8
data$rs	SEGMENT
??_R0?AV?$basic_iostream@DU?$char_traits@D@std@@@std@@@8 DD FLAT:??_7type_info@@6B@ ; std::basic_iostream<char,std::char_traits<char> > `RTTI Type Descriptor'
	DD	00H
	DB	'.?AV?$basic_iostream@DU?$char_traits@D@std@@@std@@', 00H
data$rs	ENDS
;	COMDAT ??_R1A@?0A@EA@?$basic_iostream@DU?$char_traits@D@std@@@std@@8
rdata$r	SEGMENT
??_R1A@?0A@EA@?$basic_iostream@DU?$char_traits@D@std@@@std@@8 DD FLAT:??_R0?AV?$basic_iostream@DU?$char_traits@D@std@@@std@@@8 ; std::basic_iostream<char,std::char_traits<char> >::`RTTI Base Class Descriptor at (0,-1,0,64)'
	DD	08H
	DD	00H
	DD	0ffffffffH
	DD	00H
	DD	040H
	DD	FLAT:??_R3?$basic_iostream@DU?$char_traits@D@std@@@std@@8
rdata$r	ENDS
;	COMDAT ??_R1A@?0A@EA@?$basic_stringstream@DU?$char_traits@D@std@@V?$allocator@D@2@@std@@8
rdata$r	SEGMENT
??_R1A@?0A@EA@?$basic_stringstream@DU?$char_traits@D@std@@V?$allocator@D@2@@std@@8 DD FLAT:??_R0?AV?$basic_stringstream@DU?$char_traits@D@std@@V?$allocator@D@2@@std@@@8 ; std::basic_stringstream<char,std::char_traits<char>,std::allocator<char> >::`RTTI Base Class Descriptor at (0,-1,0,64)'
	DD	09H
	DD	00H
	DD	0ffffffffH
	DD	00H
	DD	040H
	DD	FLAT:??_R3?$basic_stringstream@DU?$char_traits@D@std@@V?$allocator@D@2@@std@@8
rdata$r	ENDS
;	COMDAT ??_R2?$basic_stringstream@DU?$char_traits@D@std@@V?$allocator@D@2@@std@@8
rdata$r	SEGMENT
??_R2?$basic_stringstream@DU?$char_traits@D@std@@V?$allocator@D@2@@std@@8 DD FLAT:??_R1A@?0A@EA@?$basic_stringstream@DU?$char_traits@D@std@@V?$allocator@D@2@@std@@8 ; std::basic_stringstream<char,std::char_traits<char>,std::allocator<char> >::`RTTI Base Class Array'
	DD	FLAT:??_R1A@?0A@EA@?$basic_iostream@DU?$char_traits@D@std@@@std@@8
	DD	FLAT:??_R1A@?0A@EA@?$basic_istream@DU?$char_traits@D@std@@@std@@8
	DD	FLAT:??_R1A@A@3FA@?$basic_ios@DU?$char_traits@D@std@@@std@@8
	DD	FLAT:??_R1A@A@3EA@ios_base@std@@8
	DD	FLAT:??_R17A@3EA@?$_Iosb@H@std@@8
	DD	FLAT:??_R1BA@?0A@EA@?$basic_ostream@DU?$char_traits@D@std@@@std@@8
	DD	FLAT:??_R1A@A@3FA@?$basic_ios@DU?$char_traits@D@std@@@std@@8
	DD	FLAT:??_R1A@A@3EA@ios_base@std@@8
	DD	FLAT:??_R17A@3EA@?$_Iosb@H@std@@8
rdata$r	ENDS
;	COMDAT ??_R3?$basic_stringstream@DU?$char_traits@D@std@@V?$allocator@D@2@@std@@8
rdata$r	SEGMENT
??_R3?$basic_stringstream@DU?$char_traits@D@std@@V?$allocator@D@2@@std@@8 DD 00H ; std::basic_stringstream<char,std::char_traits<char>,std::allocator<char> >::`RTTI Class Hierarchy Descriptor'
	DD	03H
	DD	0aH
	DD	FLAT:??_R2?$basic_stringstream@DU?$char_traits@D@std@@V?$allocator@D@2@@std@@8
rdata$r	ENDS
;	COMDAT ??_R0?AV?$basic_stringstream@DU?$char_traits@D@std@@V?$allocator@D@2@@std@@@8
data$rs	SEGMENT
??_R0?AV?$basic_stringstream@DU?$char_traits@D@std@@V?$allocator@D@2@@std@@@8 DD FLAT:??_7type_info@@6B@ ; std::basic_stringstream<char,std::char_traits<char>,std::allocator<char> > `RTTI Type Descriptor'
	DD	00H
	DB	'.?AV?$basic_stringstream@DU?$char_traits@D@std@@V?$alloc'
	DB	'ator@D@2@@std@@', 00H
data$rs	ENDS
;	COMDAT ??_R4?$basic_stringstream@DU?$char_traits@D@std@@V?$allocator@D@2@@std@@6B@
rdata$r	SEGMENT
??_R4?$basic_stringstream@DU?$char_traits@D@std@@V?$allocator@D@2@@std@@6B@ DD 00H ; std::basic_stringstream<char,std::char_traits<char>,std::allocator<char> >::`RTTI Complete Object Locator'
	DD	068H
	DD	04H
	DD	FLAT:??_R0?AV?$basic_stringstream@DU?$char_traits@D@std@@V?$allocator@D@2@@std@@@8
	DD	FLAT:??_R3?$basic_stringstream@DU?$char_traits@D@std@@V?$allocator@D@2@@std@@8
rdata$r	ENDS
;	COMDAT ??_R17A@3EA@?$_Iosb@H@std@@8
rdata$r	SEGMENT
??_R17A@3EA@?$_Iosb@H@std@@8 DD FLAT:??_R0?AV?$_Iosb@H@std@@@8 ; std::_Iosb<int>::`RTTI Base Class Descriptor at (8,0,4,64)'
	DD	00H
	DD	08H
	DD	00H
	DD	04H
	DD	040H
	DD	FLAT:??_R3?$_Iosb@H@std@@8
rdata$r	ENDS
;	COMDAT ??_R1A@A@3EA@ios_base@std@@8
rdata$r	SEGMENT
??_R1A@A@3EA@ios_base@std@@8 DD FLAT:??_R0?AVios_base@std@@@8 ; std::ios_base::`RTTI Base Class Descriptor at (0,0,4,64)'
	DD	01H
	DD	00H
	DD	00H
	DD	04H
	DD	040H
	DD	FLAT:??_R3ios_base@std@@8
rdata$r	ENDS
;	COMDAT ??_R1A@?0A@EA@?$_Iosb@H@std@@8
rdata$r	SEGMENT
??_R1A@?0A@EA@?$_Iosb@H@std@@8 DD FLAT:??_R0?AV?$_Iosb@H@std@@@8 ; std::_Iosb<int>::`RTTI Base Class Descriptor at (0,-1,0,64)'
	DD	00H
	DD	00H
	DD	0ffffffffH
	DD	00H
	DD	040H
	DD	FLAT:??_R3?$_Iosb@H@std@@8
rdata$r	ENDS
;	COMDAT ??_R2?$_Iosb@H@std@@8
rdata$r	SEGMENT
??_R2?$_Iosb@H@std@@8 DD FLAT:??_R1A@?0A@EA@?$_Iosb@H@std@@8 ; std::_Iosb<int>::`RTTI Base Class Array'
rdata$r	ENDS
;	COMDAT ??_R3?$_Iosb@H@std@@8
rdata$r	SEGMENT
??_R3?$_Iosb@H@std@@8 DD 00H				; std::_Iosb<int>::`RTTI Class Hierarchy Descriptor'
	DD	00H
	DD	01H
	DD	FLAT:??_R2?$_Iosb@H@std@@8
rdata$r	ENDS
;	COMDAT ??_R0?AV?$_Iosb@H@std@@@8
data$rs	SEGMENT
??_R0?AV?$_Iosb@H@std@@@8 DD FLAT:??_7type_info@@6B@	; std::_Iosb<int> `RTTI Type Descriptor'
	DD	00H
	DB	'.?AV?$_Iosb@H@std@@', 00H
data$rs	ENDS
;	COMDAT ??_R17?0A@EA@?$_Iosb@H@std@@8
rdata$r	SEGMENT
??_R17?0A@EA@?$_Iosb@H@std@@8 DD FLAT:??_R0?AV?$_Iosb@H@std@@@8 ; std::_Iosb<int>::`RTTI Base Class Descriptor at (8,-1,0,64)'
	DD	00H
	DD	08H
	DD	0ffffffffH
	DD	00H
	DD	040H
	DD	FLAT:??_R3?$_Iosb@H@std@@8
rdata$r	ENDS
;	COMDAT ??_R2ios_base@std@@8
rdata$r	SEGMENT
??_R2ios_base@std@@8 DD FLAT:??_R1A@?0A@EA@ios_base@std@@8 ; std::ios_base::`RTTI Base Class Array'
	DD	FLAT:??_R17?0A@EA@?$_Iosb@H@std@@8
rdata$r	ENDS
;	COMDAT ??_R3ios_base@std@@8
rdata$r	SEGMENT
??_R3ios_base@std@@8 DD 00H				; std::ios_base::`RTTI Class Hierarchy Descriptor'
	DD	00H
	DD	02H
	DD	FLAT:??_R2ios_base@std@@8
rdata$r	ENDS
;	COMDAT ??_R0?AVios_base@std@@@8
data$rs	SEGMENT
??_R0?AVios_base@std@@@8 DD FLAT:??_7type_info@@6B@	; std::ios_base `RTTI Type Descriptor'
	DD	00H
	DB	'.?AVios_base@std@@', 00H
data$rs	ENDS
;	COMDAT ??_R1A@?0A@EA@ios_base@std@@8
rdata$r	SEGMENT
??_R1A@?0A@EA@ios_base@std@@8 DD FLAT:??_R0?AVios_base@std@@@8 ; std::ios_base::`RTTI Base Class Descriptor at (0,-1,0,64)'
	DD	01H
	DD	00H
	DD	0ffffffffH
	DD	00H
	DD	040H
	DD	FLAT:??_R3ios_base@std@@8
rdata$r	ENDS
;	COMDAT ??_R1A@?0A@EA@?$basic_ios@DU?$char_traits@D@std@@@std@@8
rdata$r	SEGMENT
??_R1A@?0A@EA@?$basic_ios@DU?$char_traits@D@std@@@std@@8 DD FLAT:??_R0?AV?$basic_ios@DU?$char_traits@D@std@@@std@@@8 ; std::basic_ios<char,std::char_traits<char> >::`RTTI Base Class Descriptor at (0,-1,0,64)'
	DD	02H
	DD	00H
	DD	0ffffffffH
	DD	00H
	DD	040H
	DD	FLAT:??_R3?$basic_ios@DU?$char_traits@D@std@@@std@@8
rdata$r	ENDS
;	COMDAT ??_R2?$basic_ios@DU?$char_traits@D@std@@@std@@8
rdata$r	SEGMENT
??_R2?$basic_ios@DU?$char_traits@D@std@@@std@@8 DD FLAT:??_R1A@?0A@EA@?$basic_ios@DU?$char_traits@D@std@@@std@@8 ; std::basic_ios<char,std::char_traits<char> >::`RTTI Base Class Array'
	DD	FLAT:??_R1A@?0A@EA@ios_base@std@@8
	DD	FLAT:??_R17?0A@EA@?$_Iosb@H@std@@8
rdata$r	ENDS
;	COMDAT ??_R3?$basic_ios@DU?$char_traits@D@std@@@std@@8
rdata$r	SEGMENT
??_R3?$basic_ios@DU?$char_traits@D@std@@@std@@8 DD 00H	; std::basic_ios<char,std::char_traits<char> >::`RTTI Class Hierarchy Descriptor'
	DD	00H
	DD	03H
	DD	FLAT:??_R2?$basic_ios@DU?$char_traits@D@std@@@std@@8
rdata$r	ENDS
;	COMDAT ??_R0?AV?$basic_ios@DU?$char_traits@D@std@@@std@@@8
data$rs	SEGMENT
??_R0?AV?$basic_ios@DU?$char_traits@D@std@@@std@@@8 DD FLAT:??_7type_info@@6B@ ; std::basic_ios<char,std::char_traits<char> > `RTTI Type Descriptor'
	DD	00H
	DB	'.?AV?$basic_ios@DU?$char_traits@D@std@@@std@@', 00H
data$rs	ENDS
;	COMDAT ??_R1A@A@3FA@?$basic_ios@DU?$char_traits@D@std@@@std@@8
rdata$r	SEGMENT
??_R1A@A@3FA@?$basic_ios@DU?$char_traits@D@std@@@std@@8 DD FLAT:??_R0?AV?$basic_ios@DU?$char_traits@D@std@@@std@@@8 ; std::basic_ios<char,std::char_traits<char> >::`RTTI Base Class Descriptor at (0,0,4,80)'
	DD	02H
	DD	00H
	DD	00H
	DD	04H
	DD	050H
	DD	FLAT:??_R3?$basic_ios@DU?$char_traits@D@std@@@std@@8
rdata$r	ENDS
;	COMDAT ??_R2?$basic_istream@DU?$char_traits@D@std@@@std@@8
rdata$r	SEGMENT
??_R2?$basic_istream@DU?$char_traits@D@std@@@std@@8 DD FLAT:??_R1A@?0A@EA@?$basic_istream@DU?$char_traits@D@std@@@std@@8 ; std::basic_istream<char,std::char_traits<char> >::`RTTI Base Class Array'
	DD	FLAT:??_R1A@A@3FA@?$basic_ios@DU?$char_traits@D@std@@@std@@8
	DD	FLAT:??_R1A@A@3EA@ios_base@std@@8
	DD	FLAT:??_R17A@3EA@?$_Iosb@H@std@@8
rdata$r	ENDS
;	COMDAT ??_R3?$basic_istream@DU?$char_traits@D@std@@@std@@8
rdata$r	SEGMENT
??_R3?$basic_istream@DU?$char_traits@D@std@@@std@@8 DD 00H ; std::basic_istream<char,std::char_traits<char> >::`RTTI Class Hierarchy Descriptor'
	DD	00H
	DD	04H
	DD	FLAT:??_R2?$basic_istream@DU?$char_traits@D@std@@@std@@8
rdata$r	ENDS
;	COMDAT ??_R0?AV?$basic_istream@DU?$char_traits@D@std@@@std@@@8
data$rs	SEGMENT
??_R0?AV?$basic_istream@DU?$char_traits@D@std@@@std@@@8 DD FLAT:??_7type_info@@6B@ ; std::basic_istream<char,std::char_traits<char> > `RTTI Type Descriptor'
	DD	00H
	DB	'.?AV?$basic_istream@DU?$char_traits@D@std@@@std@@', 00H
data$rs	ENDS
;	COMDAT ??_R1A@?0A@EA@?$basic_istream@DU?$char_traits@D@std@@@std@@8
rdata$r	SEGMENT
??_R1A@?0A@EA@?$basic_istream@DU?$char_traits@D@std@@@std@@8 DD FLAT:??_R0?AV?$basic_istream@DU?$char_traits@D@std@@@std@@@8 ; std::basic_istream<char,std::char_traits<char> >::`RTTI Base Class Descriptor at (0,-1,0,64)'
	DD	03H
	DD	00H
	DD	0ffffffffH
	DD	00H
	DD	040H
	DD	FLAT:??_R3?$basic_istream@DU?$char_traits@D@std@@@std@@8
rdata$r	ENDS
;	COMDAT ??_R1A@?0A@EA@?$basic_istringstream@DU?$char_traits@D@std@@V?$allocator@D@2@@std@@8
rdata$r	SEGMENT
??_R1A@?0A@EA@?$basic_istringstream@DU?$char_traits@D@std@@V?$allocator@D@2@@std@@8 DD FLAT:??_R0?AV?$basic_istringstream@DU?$char_traits@D@std@@V?$allocator@D@2@@std@@@8 ; std::basic_istringstream<char,std::char_traits<char>,std::allocator<char> >::`RTTI Base Class Descriptor at (0,-1,0,64)'
	DD	04H
	DD	00H
	DD	0ffffffffH
	DD	00H
	DD	040H
	DD	FLAT:??_R3?$basic_istringstream@DU?$char_traits@D@std@@V?$allocator@D@2@@std@@8
rdata$r	ENDS
;	COMDAT ??_R2?$basic_istringstream@DU?$char_traits@D@std@@V?$allocator@D@2@@std@@8
rdata$r	SEGMENT
??_R2?$basic_istringstream@DU?$char_traits@D@std@@V?$allocator@D@2@@std@@8 DD FLAT:??_R1A@?0A@EA@?$basic_istringstream@DU?$char_traits@D@std@@V?$allocator@D@2@@std@@8 ; std::basic_istringstream<char,std::char_traits<char>,std::allocator<char> >::`RTTI Base Class Array'
	DD	FLAT:??_R1A@?0A@EA@?$basic_istream@DU?$char_traits@D@std@@@std@@8
	DD	FLAT:??_R1A@A@3FA@?$basic_ios@DU?$char_traits@D@std@@@std@@8
	DD	FLAT:??_R1A@A@3EA@ios_base@std@@8
	DD	FLAT:??_R17A@3EA@?$_Iosb@H@std@@8
rdata$r	ENDS
;	COMDAT ??_R3?$basic_istringstream@DU?$char_traits@D@std@@V?$allocator@D@2@@std@@8
rdata$r	SEGMENT
??_R3?$basic_istringstream@DU?$char_traits@D@std@@V?$allocator@D@2@@std@@8 DD 00H ; std::basic_istringstream<char,std::char_traits<char>,std::allocator<char> >::`RTTI Class Hierarchy Descriptor'
	DD	00H
	DD	05H
	DD	FLAT:??_R2?$basic_istringstream@DU?$char_traits@D@std@@V?$allocator@D@2@@std@@8
rdata$r	ENDS
;	COMDAT ??_R0?AV?$basic_istringstream@DU?$char_traits@D@std@@V?$allocator@D@2@@std@@@8
data$rs	SEGMENT
??_R0?AV?$basic_istringstream@DU?$char_traits@D@std@@V?$allocator@D@2@@std@@@8 DD FLAT:??_7type_info@@6B@ ; std::basic_istringstream<char,std::char_traits<char>,std::allocator<char> > `RTTI Type Descriptor'
	DD	00H
	DB	'.?AV?$basic_istringstream@DU?$char_traits@D@std@@V?$allo'
	DB	'cator@D@2@@std@@', 00H
data$rs	ENDS
;	COMDAT ??_R4?$basic_istringstream@DU?$char_traits@D@std@@V?$allocator@D@2@@std@@6B@
rdata$r	SEGMENT
??_R4?$basic_istringstream@DU?$char_traits@D@std@@V?$allocator@D@2@@std@@6B@ DD 00H ; std::basic_istringstream<char,std::char_traits<char>,std::allocator<char> >::`RTTI Complete Object Locator'
	DD	060H
	DD	04H
	DD	FLAT:??_R0?AV?$basic_istringstream@DU?$char_traits@D@std@@V?$allocator@D@2@@std@@@8
	DD	FLAT:??_R3?$basic_istringstream@DU?$char_traits@D@std@@V?$allocator@D@2@@std@@8
rdata$r	ENDS
;	COMDAT ??_R2?$basic_streambuf@DU?$char_traits@D@std@@@std@@8
rdata$r	SEGMENT
??_R2?$basic_streambuf@DU?$char_traits@D@std@@@std@@8 DD FLAT:??_R1A@?0A@EA@?$basic_streambuf@DU?$char_traits@D@std@@@std@@8 ; std::basic_streambuf<char,std::char_traits<char> >::`RTTI Base Class Array'
rdata$r	ENDS
;	COMDAT ??_R3?$basic_streambuf@DU?$char_traits@D@std@@@std@@8
rdata$r	SEGMENT
??_R3?$basic_streambuf@DU?$char_traits@D@std@@@std@@8 DD 00H ; std::basic_streambuf<char,std::char_traits<char> >::`RTTI Class Hierarchy Descriptor'
	DD	00H
	DD	01H
	DD	FLAT:??_R2?$basic_streambuf@DU?$char_traits@D@std@@@std@@8
rdata$r	ENDS
;	COMDAT ??_R0?AV?$basic_streambuf@DU?$char_traits@D@std@@@std@@@8
data$rs	SEGMENT
??_R0?AV?$basic_streambuf@DU?$char_traits@D@std@@@std@@@8 DD FLAT:??_7type_info@@6B@ ; std::basic_streambuf<char,std::char_traits<char> > `RTTI Type Descriptor'
	DD	00H
	DB	'.?AV?$basic_streambuf@DU?$char_traits@D@std@@@std@@', 00H
data$rs	ENDS
;	COMDAT ??_R1A@?0A@EA@?$basic_streambuf@DU?$char_traits@D@std@@@std@@8
rdata$r	SEGMENT
??_R1A@?0A@EA@?$basic_streambuf@DU?$char_traits@D@std@@@std@@8 DD FLAT:??_R0?AV?$basic_streambuf@DU?$char_traits@D@std@@@std@@@8 ; std::basic_streambuf<char,std::char_traits<char> >::`RTTI Base Class Descriptor at (0,-1,0,64)'
	DD	00H
	DD	00H
	DD	0ffffffffH
	DD	00H
	DD	040H
	DD	FLAT:??_R3?$basic_streambuf@DU?$char_traits@D@std@@@std@@8
rdata$r	ENDS
;	COMDAT ??_R1A@?0A@EA@?$basic_stringbuf@DU?$char_traits@D@std@@V?$allocator@D@2@@std@@8
rdata$r	SEGMENT
??_R1A@?0A@EA@?$basic_stringbuf@DU?$char_traits@D@std@@V?$allocator@D@2@@std@@8 DD FLAT:??_R0?AV?$basic_stringbuf@DU?$char_traits@D@std@@V?$allocator@D@2@@std@@@8 ; std::basic_stringbuf<char,std::char_traits<char>,std::allocator<char> >::`RTTI Base Class Descriptor at (0,-1,0,64)'
	DD	01H
	DD	00H
	DD	0ffffffffH
	DD	00H
	DD	040H
	DD	FLAT:??_R3?$basic_stringbuf@DU?$char_traits@D@std@@V?$allocator@D@2@@std@@8
rdata$r	ENDS
;	COMDAT ??_R2?$basic_stringbuf@DU?$char_traits@D@std@@V?$allocator@D@2@@std@@8
rdata$r	SEGMENT
??_R2?$basic_stringbuf@DU?$char_traits@D@std@@V?$allocator@D@2@@std@@8 DD FLAT:??_R1A@?0A@EA@?$basic_stringbuf@DU?$char_traits@D@std@@V?$allocator@D@2@@std@@8 ; std::basic_stringbuf<char,std::char_traits<char>,std::allocator<char> >::`RTTI Base Class Array'
	DD	FLAT:??_R1A@?0A@EA@?$basic_streambuf@DU?$char_traits@D@std@@@std@@8
rdata$r	ENDS
;	COMDAT ??_R3?$basic_stringbuf@DU?$char_traits@D@std@@V?$allocator@D@2@@std@@8
rdata$r	SEGMENT
??_R3?$basic_stringbuf@DU?$char_traits@D@std@@V?$allocator@D@2@@std@@8 DD 00H ; std::basic_stringbuf<char,std::char_traits<char>,std::allocator<char> >::`RTTI Class Hierarchy Descriptor'
	DD	00H
	DD	02H
	DD	FLAT:??_R2?$basic_stringbuf@DU?$char_traits@D@std@@V?$allocator@D@2@@std@@8
rdata$r	ENDS
;	COMDAT ??_R0?AV?$basic_stringbuf@DU?$char_traits@D@std@@V?$allocator@D@2@@std@@@8
data$rs	SEGMENT
??_R0?AV?$basic_stringbuf@DU?$char_traits@D@std@@V?$allocator@D@2@@std@@@8 DD FLAT:??_7type_info@@6B@ ; std::basic_stringbuf<char,std::char_traits<char>,std::allocator<char> > `RTTI Type Descriptor'
	DD	00H
	DB	'.?AV?$basic_stringbuf@DU?$char_traits@D@std@@V?$allocato'
	DB	'r@D@2@@std@@', 00H
data$rs	ENDS
;	COMDAT ??_R4?$basic_stringbuf@DU?$char_traits@D@std@@V?$allocator@D@2@@std@@6B@
rdata$r	SEGMENT
??_R4?$basic_stringbuf@DU?$char_traits@D@std@@V?$allocator@D@2@@std@@6B@ DD 00H ; std::basic_stringbuf<char,std::char_traits<char>,std::allocator<char> >::`RTTI Complete Object Locator'
	DD	00H
	DD	00H
	DD	FLAT:??_R0?AV?$basic_stringbuf@DU?$char_traits@D@std@@V?$allocator@D@2@@std@@@8
	DD	FLAT:??_R3?$basic_stringbuf@DU?$char_traits@D@std@@V?$allocator@D@2@@std@@8
rdata$r	ENDS
;	COMDAT ??_C@_1EO@GFNCMDLA@?$AAs?$AAt?$AAd?$AA?3?$AA?3?$AA_?$AAA?$AAl?$AAl?$AAo?$AAc?$AAa?$AAt?$AAe?$AA_@
CONST	SEGMENT
??_C@_1EO@GFNCMDLA@?$AAs?$AAt?$AAd?$AA?3?$AA?3?$AA_?$AAA?$AAl?$AAl?$AAo?$AAc?$AAa?$AAt?$AAe?$AA_@ DB 's'
	DB	00H, 't', 00H, 'd', 00H, ':', 00H, ':', 00H, '_', 00H, 'A', 00H
	DB	'l', 00H, 'l', 00H, 'o', 00H, 'c', 00H, 'a', 00H, 't', 00H, 'e'
	DB	00H, '_', 00H, 'm', 00H, 'a', 00H, 'n', 00H, 'u', 00H, 'a', 00H
	DB	'l', 00H, 'l', 00H, 'y', 00H, '_', 00H, 'v', 00H, 'e', 00H, 'c'
	DB	00H, 't', 00H, 'o', 00H, 'r', 00H, '_', 00H, 'a', 00H, 'l', 00H
	DB	'i', 00H, 'g', 00H, 'n', 00H, 'e', 00H, 'd', 00H, 00H, 00H ; `string'
CONST	ENDS
;	COMDAT ??_C@_1DG@FJIKMGFD@?$AA?$CC?$AAt?$AAr?$AAa?$AAn?$AAs?$AAp?$AAo?$AAs?$AAe?$AAd?$AA?5?$AAp?$AAo?$AAi@
CONST	SEGMENT
??_C@_1DG@FJIKMGFD@?$AA?$CC?$AAt?$AAr?$AAa?$AAn?$AAs?$AAp?$AAo?$AAs?$AAe?$AAd?$AA?5?$AAp?$AAo?$AAi@ DB '"'
	DB	00H, 't', 00H, 'r', 00H, 'a', 00H, 'n', 00H, 's', 00H, 'p', 00H
	DB	'o', 00H, 's', 00H, 'e', 00H, 'd', 00H, ' ', 00H, 'p', 00H, 'o'
	DB	00H, 'i', 00H, 'n', 00H, 't', 00H, 'e', 00H, 'r', 00H, ' ', 00H
	DB	'r', 00H, 'a', 00H, 'n', 00H, 'g', 00H, 'e', 00H, '"', 00H, 00H
	DB	00H						; `string'
CONST	ENDS
;	COMDAT ??_C@_1CG@LJCPDKEJ@?$AAs?$AAt?$AAd?$AA?3?$AA?3?$AA_?$AAV?$AAe?$AAr?$AAi?$AAf?$AAy?$AA_?$AAr?$AAa@
CONST	SEGMENT
??_C@_1CG@LJCPDKEJ@?$AAs?$AAt?$AAd?$AA?3?$AA?3?$AA_?$AAV?$AAe?$AAr?$AAi?$AAf?$AAy?$AA_?$AAr?$AAa@ DB 's'
	DB	00H, 't', 00H, 'd', 00H, ':', 00H, ':', 00H, '_', 00H, 'V', 00H
	DB	'e', 00H, 'r', 00H, 'i', 00H, 'f', 00H, 'y', 00H, '_', 00H, 'r'
	DB	00H, 'a', 00H, 'n', 00H, 'g', 00H, 'e', 00H, 00H, 00H ; `string'
CONST	ENDS
;	COMDAT ??_C@_1KK@NJCNFCOG@?$AAD?$AA?3?$AA?2?$AAM?$AAi?$AAc?$AAr?$AAo?$AAs?$AAo?$AAf?$AAt?$AA?5?$AAV?$AAi@
CONST	SEGMENT
??_C@_1KK@NJCNFCOG@?$AAD?$AA?3?$AA?2?$AAM?$AAi?$AAc?$AAr?$AAo?$AAs?$AAo?$AAf?$AAt?$AA?5?$AAV?$AAi@ DB 'D'
	DB	00H, ':', 00H, '\', 00H, 'M', 00H, 'i', 00H, 'c', 00H, 'r', 00H
	DB	'o', 00H, 's', 00H, 'o', 00H, 'f', 00H, 't', 00H, ' ', 00H, 'V'
	DB	00H, 'i', 00H, 's', 00H, 'u', 00H, 'a', 00H, 'l', 00H, ' ', 00H
	DB	'S', 00H, 't', 00H, 'u', 00H, 'd', 00H, 'i', 00H, 'o', 00H, '\'
	DB	00H, '2', 00H, '0', 00H, '1', 00H, '9', 00H, '\', 00H, 'C', 00H
	DB	'o', 00H, 'm', 00H, 'm', 00H, 'u', 00H, 'n', 00H, 'i', 00H, 't'
	DB	00H, 'y', 00H, '\', 00H, 'V', 00H, 'C', 00H, '\', 00H, 'T', 00H
	DB	'o', 00H, 'o', 00H, 'l', 00H, 's', 00H, '\', 00H, 'M', 00H, 'S'
	DB	00H, 'V', 00H, 'C', 00H, '\', 00H, '1', 00H, '4', 00H, '.', 00H
	DB	'2', 00H, '8', 00H, '.', 00H, '2', 00H, '9', 00H, '3', 00H, '3'
	DB	00H, '3', 00H, '\', 00H, 'i', 00H, 'n', 00H, 'c', 00H, 'l', 00H
	DB	'u', 00H, 'd', 00H, 'e', 00H, '\', 00H, 'x', 00H, 'u', 00H, 't'
	DB	00H, 'i', 00H, 'l', 00H, 'i', 00H, 't', 00H, 'y', 00H, 00H, 00H ; `string'
CONST	ENDS
;	COMDAT ??_C@_0FF@MAKIMAC@D?3?2Microsoft?5Visual?5Studio?22019@
CONST	SEGMENT
??_C@_0FF@MAKIMAC@D?3?2Microsoft?5Visual?5Studio?22019@ DB 'D:\Microsoft '
	DB	'Visual Studio\2019\Community\VC\Tools\MSVC\14.28.29333\includ'
	DB	'e\xutility', 00H				; `string'
CONST	ENDS
;	COMDAT ??_C@_0BJ@HAJGEHKO@transposed?5pointer?5range@
CONST	SEGMENT
??_C@_0BJ@HAJGEHKO@transposed?5pointer?5range@ DB 'transposed pointer ran'
	DB	'ge', 00H					; `string'
CONST	ENDS
;	COMDAT __GUID_06152247_6f50_465a_9245_118bfd3b6007
CONST	SEGMENT
__GUID_06152247_6f50_465a_9245_118bfd3b6007 DD 06152247H
	DW	06f50H
	DW	0465aH
	DB	092H
	DB	045H
	DB	011H
	DB	08bH
	DB	0fdH
	DB	03bH
	DB	060H
	DB	07H
CONST	ENDS
;	COMDAT ??_C@_1BPK@IDOEFEOL@?$AA?$CC?$AAY?$AAo?$AAu?$AA?5?$AAc?$AAa?$AAn?$AAn?$AAo?$AAt?$AA?5?$AAc?$AAo?$AAn@
CONST	SEGMENT
??_C@_1BPK@IDOEFEOL@?$AA?$CC?$AAY?$AAo?$AAu?$AA?5?$AAc?$AAa?$AAn?$AAn?$AAo?$AAt?$AA?5?$AAc?$AAo?$AAn@ DB '"'
	DB	00H, 'Y', 00H, 'o', 00H, 'u', 00H, ' ', 00H, 'c', 00H, 'a', 00H
	DB	'n', 00H, 'n', 00H, 'o', 00H, 't', 00H, ' ', 00H, 'c', 00H, 'o'
	DB	00H, 'n', 00H, 'c', 00H, 'a', 00H, 't', 00H, 'e', 00H, 'n', 00H
	DB	'a', 00H, 't', 00H, 'e', 00H, ' ', 00H, 't', 00H, 'h', 00H, 'e'
	DB	00H, ' ', 00H, 's', 00H, 'a', 00H, 'm', 00H, 'e', 00H, ' ', 00H
	DB	'm', 00H, 'o', 00H, 'v', 00H, 'e', 00H, 'd', 00H, ' ', 00H, 's'
	DB	00H, 't', 00H, 'r', 00H, 'i', 00H, 'n', 00H, 'g', 00H, ' ', 00H
	DB	't', 00H, 'o', 00H, ' ', 00H, 'i', 00H, 't', 00H, 's', 00H, 'e'
	DB	00H, 'l', 00H, 'f', 00H, '.', 00H, ' ', 00H, 'S', 00H, 'e', 00H
	DB	'e', 00H, ' ', 00H, '"', 00H, ' ', 00H, '"', 00H, 'N', 00H, '4'
	DB	00H, '8', 00H, '4', 00H, '9', 00H, ' ', 00H, '[', 00H, 'r', 00H
	DB	'e', 00H, 's', 00H, '.', 00H, 'o', 00H, 'n', 00H, '.', 00H, 'a'
	DB	00H, 'r', 00H, 'g', 00H, 'u', 00H, 'm', 00H, 'e', 00H, 'n', 00H
	DB	't', 00H, 's', 00H, ']', 00H, '/', 00H, '1', 00H, '.', 00H, '3'
	DB	00H, ':', 00H, ' ', 00H, 'I', 00H, 'f', 00H, ' ', 00H, 'a', 00H
	DB	' ', 00H, 'f', 00H, 'u', 00H, 'n', 00H, 'c', 00H, 't', 00H, 'i'
	DB	00H, 'o', 00H, 'n', 00H, ' ', 00H, 'a', 00H, 'r', 00H, 'g', 00H
	DB	'u', 00H, 'm', 00H, 'e', 00H, 'n', 00H, 't', 00H, ' ', 00H, 'b'
	DB	00H, 'i', 00H, 'n', 00H, 'd', 00H, 's', 00H, ' ', 00H, 't', 00H
	DB	'o', 00H, ' ', 00H, 'a', 00H, 'n', 00H, ' ', 00H, 'r', 00H, 'v'
	DB	00H, 'a', 00H, 'l', 00H, 'u', 00H, 'e', 00H, ' ', 00H, 'r', 00H
	DB	'e', 00H, 'f', 00H, 'e', 00H, 'r', 00H, 'e', 00H, 'n', 00H, 'c'
	DB	00H, 'e', 00H, ' ', 00H, '"', 00H, ' ', 00H, '"', 00H, 'p', 00H
	DB	'a', 00H, 'r', 00H, 'a', 00H, 'm', 00H, 'e', 00H, 't', 00H, 'e'
	DB	00H, 'r', 00H, ',', 00H, ' ', 00H, 't', 00H, 'h', 00H, 'e', 00H
	DB	' ', 00H, 'i', 00H, 'm', 00H, 'p', 00H, 'l', 00H, 'e', 00H, 'm'
	DB	00H, 'e', 00H, 'n', 00H, 't', 00H, 'a', 00H, 't', 00H, 'i', 00H
	DB	'o', 00H, 'n', 00H, ' ', 00H, 'm', 00H, 'a', 00H, 'y', 00H, ' '
	DB	00H, 'a', 00H, 's', 00H, 's', 00H, 'u', 00H, 'm', 00H, 'e', 00H
	DB	' ', 00H, 't', 00H, 'h', 00H, 'a', 00H, 't', 00H, ' ', 00H, 't'
	DB	00H, 'h', 00H, 'i', 00H, 's', 00H, ' ', 00H, 'p', 00H, 'a', 00H
	DB	'r', 00H, 'a', 00H, 'm', 00H, 'e', 00H, 't', 00H, 'e', 00H, 'r'
	DB	00H, ' ', 00H, 'i', 00H, 's', 00H, ' ', 00H, 'a', 00H, ' ', 00H
	DB	'u', 00H, 'n', 00H, 'i', 00H, 'q', 00H, 'u', 00H, 'e', 00H, ' '
	DB	00H, 'r', 00H, 'e', 00H, 'f', 00H, 'e', 00H, 'r', 00H, 'e', 00H
	DB	'n', 00H, 'c', 00H, 'e', 00H, ' ', 00H, '"', 00H, ' ', 00H, '"'
	DB	00H, 't', 00H, 'o', 00H, ' ', 00H, 't', 00H, 'h', 00H, 'i', 00H
	DB	's', 00H, ' ', 00H, 'a', 00H, 'r', 00H, 'g', 00H, 'u', 00H, 'm'
	DB	00H, 'e', 00H, 'n', 00H, 't', 00H, '"', 00H, 00H, 00H ; `string'
CONST	ENDS
;	COMDAT ??_C@_1CA@DFIMIFBJ@?$AAs?$AAt?$AAd?$AA?3?$AA?3?$AAo?$AAp?$AAe?$AAr?$AAa?$AAt?$AAo?$AAr?$AA?5?$AA?$CL@
CONST	SEGMENT
??_C@_1CA@DFIMIFBJ@?$AAs?$AAt?$AAd?$AA?3?$AA?3?$AAo?$AAp?$AAe?$AAr?$AAa?$AAt?$AAo?$AAr?$AA?5?$AA?$CL@ DB 's'
	DB	00H, 't', 00H, 'd', 00H, ':', 00H, ':', 00H, 'o', 00H, 'p', 00H
	DB	'e', 00H, 'r', 00H, 'a', 00H, 't', 00H, 'o', 00H, 'r', 00H, ' '
	DB	00H, '+', 00H, 00H, 00H			; `string'
CONST	ENDS
;	COMDAT ??_C@_0PC@KBJGOMJG@You?5cannot?5concatenate?5the?5same@
CONST	SEGMENT
??_C@_0PC@KBJGOMJG@You?5cannot?5concatenate?5the?5same@ DB 'You cannot co'
	DB	'ncatenate the same moved string to itself. See N4849 [res.on.'
	DB	'arguments]/1.3: If a function argument binds to an rvalue ref'
	DB	'erence parameter, the implementation may assume that this par'
	DB	'ameter is a unique reference to this argument', 00H ; `string'
CONST	ENDS
;	COMDAT ??_C@_0BI@CFPLBAOH@invalid?5string?5position@
CONST	SEGMENT
??_C@_0BI@CFPLBAOH@invalid?5string?5position@ DB 'invalid string position'
	DB	00H						; `string'
CONST	ENDS
;	COMDAT ??_C@_1EC@DINNLDHA@?$AA?$CC?$AAf?$AAr?$AAo?$AAn?$AAt?$AA?$CI?$AA?$CJ?$AA?5?$AAc?$AAa?$AAl?$AAl?$AAe?$AAd@
CONST	SEGMENT
??_C@_1EC@DINNLDHA@?$AA?$CC?$AAf?$AAr?$AAo?$AAn?$AAt?$AA?$CI?$AA?$CJ?$AA?5?$AAc?$AAa?$AAl?$AAl?$AAe?$AAd@ DB '"'
	DB	00H, 'f', 00H, 'r', 00H, 'o', 00H, 'n', 00H, 't', 00H, '(', 00H
	DB	')', 00H, ' ', 00H, 'c', 00H, 'a', 00H, 'l', 00H, 'l', 00H, 'e'
	DB	00H, 'd', 00H, ' ', 00H, 'o', 00H, 'n', 00H, ' ', 00H, 'e', 00H
	DB	'm', 00H, 'p', 00H, 't', 00H, 'y', 00H, ' ', 00H, 's', 00H, 't'
	DB	00H, 'r', 00H, 'i', 00H, 'n', 00H, 'g', 00H, '"', 00H, 00H, 00H ; `string'
CONST	ENDS
;	COMDAT ??_C@_1LC@BJDDPGPA@?$AAs?$AAt?$AAd?$AA?3?$AA?3?$AAb?$AAa?$AAs?$AAi?$AAc?$AA_?$AAs?$AAt?$AAr?$AAi@
CONST	SEGMENT
??_C@_1LC@BJDDPGPA@?$AAs?$AAt?$AAd?$AA?3?$AA?3?$AAb?$AAa?$AAs?$AAi?$AAc?$AA_?$AAs?$AAt?$AAr?$AAi@ DB 's'
	DB	00H, 't', 00H, 'd', 00H, ':', 00H, ':', 00H, 'b', 00H, 'a', 00H
	DB	's', 00H, 'i', 00H, 'c', 00H, '_', 00H, 's', 00H, 't', 00H, 'r'
	DB	00H, 'i', 00H, 'n', 00H, 'g', 00H, '<', 00H, 'c', 00H, 'h', 00H
	DB	'a', 00H, 'r', 00H, ',', 00H, 's', 00H, 't', 00H, 'r', 00H, 'u'
	DB	00H, 'c', 00H, 't', 00H, ' ', 00H, 's', 00H, 't', 00H, 'd', 00H
	DB	':', 00H, ':', 00H, 'c', 00H, 'h', 00H, 'a', 00H, 'r', 00H, '_'
	DB	00H, 't', 00H, 'r', 00H, 'a', 00H, 'i', 00H, 't', 00H, 's', 00H
	DB	'<', 00H, 'c', 00H, 'h', 00H, 'a', 00H, 'r', 00H, '>', 00H, ','
	DB	00H, 'c', 00H, 'l', 00H, 'a', 00H, 's', 00H, 's', 00H, ' ', 00H
	DB	's', 00H, 't', 00H, 'd', 00H, ':', 00H, ':', 00H, 'a', 00H, 'l'
	DB	00H, 'l', 00H, 'o', 00H, 'c', 00H, 'a', 00H, 't', 00H, 'o', 00H
	DB	'r', 00H, '<', 00H, 'c', 00H, 'h', 00H, 'a', 00H, 'r', 00H, '>'
	DB	00H, ' ', 00H, '>', 00H, ':', 00H, ':', 00H, 'f', 00H, 'r', 00H
	DB	'o', 00H, 'n', 00H, 't', 00H, 00H, 00H	; `string'
CONST	ENDS
;	COMDAT ??_C@_0BP@PFIPNLNI@front?$CI?$CJ?5called?5on?5empty?5string@
CONST	SEGMENT
??_C@_0BP@PFIPNLNI@front?$CI?$CJ?5called?5on?5empty?5string@ DB 'front() '
	DB	'called on empty string', 00H		; `string'
CONST	ENDS
;	COMDAT ??_C@_1BK@NHECDDNK@?$AAm?$AA_?$AAp?$AAD?$AAa?$AAt?$AAa?$AA?5?$AA?$DN?$AA?$DN?$AA?5?$AA0@
CONST	SEGMENT
??_C@_1BK@NHECDDNK@?$AAm?$AA_?$AAp?$AAD?$AAa?$AAt?$AAa?$AA?5?$AA?$DN?$AA?$DN?$AA?5?$AA0@ DB 'm'
	DB	00H, '_', 00H, 'p', 00H, 'D', 00H, 'a', 00H, 't', 00H, 'a', 00H
	DB	' ', 00H, '=', 00H, '=', 00H, ' ', 00H, '0', 00H, 00H, 00H ; `string'
CONST	ENDS
;	COMDAT ??_C@_0BA@FOIKENOD@vector?5too?5long@
CONST	SEGMENT
??_C@_0BA@FOIKENOD@vector?5too?5long@ DB 'vector too long', 00H ; `string'
CONST	ENDS
;	COMDAT ??_C@_1KI@BCEOLJOE@?$AAD?$AA?3?$AA?2?$AAM?$AAi?$AAc?$AAr?$AAo?$AAs?$AAo?$AAf?$AAt?$AA?5?$AAV?$AAi@
CONST	SEGMENT
??_C@_1KI@BCEOLJOE@?$AAD?$AA?3?$AA?2?$AAM?$AAi?$AAc?$AAr?$AAo?$AAs?$AAo?$AAf?$AAt?$AA?5?$AAV?$AAi@ DB 'D'
	DB	00H, ':', 00H, '\', 00H, 'M', 00H, 'i', 00H, 'c', 00H, 'r', 00H
	DB	'o', 00H, 's', 00H, 'o', 00H, 'f', 00H, 't', 00H, ' ', 00H, 'V'
	DB	00H, 'i', 00H, 's', 00H, 'u', 00H, 'a', 00H, 'l', 00H, ' ', 00H
	DB	'S', 00H, 't', 00H, 'u', 00H, 'd', 00H, 'i', 00H, 'o', 00H, '\'
	DB	00H, '2', 00H, '0', 00H, '1', 00H, '9', 00H, '\', 00H, 'C', 00H
	DB	'o', 00H, 'm', 00H, 'm', 00H, 'u', 00H, 'n', 00H, 'i', 00H, 't'
	DB	00H, 'y', 00H, '\', 00H, 'V', 00H, 'C', 00H, '\', 00H, 'T', 00H
	DB	'o', 00H, 'o', 00H, 'l', 00H, 's', 00H, '\', 00H, 'M', 00H, 'S'
	DB	00H, 'V', 00H, 'C', 00H, '\', 00H, '1', 00H, '4', 00H, '.', 00H
	DB	'2', 00H, '8', 00H, '.', 00H, '2', 00H, '9', 00H, '3', 00H, '3'
	DB	00H, '3', 00H, '\', 00H, 'i', 00H, 'n', 00H, 'c', 00H, 'l', 00H
	DB	'u', 00H, 'd', 00H, 'e', 00H, '\', 00H, 'x', 00H, 's', 00H, 't'
	DB	00H, 'r', 00H, 'i', 00H, 'n', 00H, 'g', 00H, 00H, 00H ; `string'
CONST	ENDS
;	COMDAT ??_C@_0FE@LCNAMHNP@D?3?2Microsoft?5Visual?5Studio?22019@
CONST	SEGMENT
??_C@_0FE@LCNAMHNP@D?3?2Microsoft?5Visual?5Studio?22019@ DB 'D:\Microsoft'
	DB	' Visual Studio\2019\Community\VC\Tools\MSVC\14.28.29333\inclu'
	DB	'de\xstring', 00H				; `string'
CONST	ENDS
;	COMDAT ??_C@_1MC@BJDPJDEC@?$AAD?$AA?3?$AA?2?$AAM?$AAi?$AAc?$AAr?$AAo?$AAs?$AAo?$AAf?$AAt?$AA?5?$AAV?$AAi@
CONST	SEGMENT
??_C@_1MC@BJDPJDEC@?$AAD?$AA?3?$AA?2?$AAM?$AAi?$AAc?$AAr?$AAo?$AAs?$AAo?$AAf?$AAt?$AA?5?$AAV?$AAi@ DB 'D'
	DB	00H, ':', 00H, '\', 00H, 'M', 00H, 'i', 00H, 'c', 00H, 'r', 00H
	DB	'o', 00H, 's', 00H, 'o', 00H, 'f', 00H, 't', 00H, ' ', 00H, 'V'
	DB	00H, 'i', 00H, 's', 00H, 'u', 00H, 'a', 00H, 'l', 00H, ' ', 00H
	DB	'S', 00H, 't', 00H, 'u', 00H, 'd', 00H, 'i', 00H, 'o', 00H, '\'
	DB	00H, '2', 00H, '0', 00H, '1', 00H, '9', 00H, '\', 00H, 'C', 00H
	DB	'o', 00H, 'm', 00H, 'm', 00H, 'u', 00H, 'n', 00H, 'i', 00H, 't'
	DB	00H, 'y', 00H, '\', 00H, 'V', 00H, 'C', 00H, '\', 00H, 'T', 00H
	DB	'o', 00H, 'o', 00H, 'l', 00H, 's', 00H, '\', 00H, 'M', 00H, 'S'
	DB	00H, 'V', 00H, 'C', 00H, '\', 00H, '1', 00H, '4', 00H, '.', 00H
	DB	'2', 00H, '8', 00H, '.', 00H, '2', 00H, '9', 00H, '3', 00H, '3'
	DB	00H, '3', 00H, '\', 00H, 'a', 00H, 't', 00H, 'l', 00H, 'm', 00H
	DB	'f', 00H, 'c', 00H, '\', 00H, 'i', 00H, 'n', 00H, 'c', 00H, 'l'
	DB	00H, 'u', 00H, 'd', 00H, 'e', 00H, '\', 00H, 'a', 00H, 't', 00H
	DB	'l', 00H, 's', 00H, 'i', 00H, 'm', 00H, 'p', 00H, 'c', 00H, 'o'
	DB	00H, 'l', 00H, 'l', 00H, '.', 00H, 'h', 00H, 00H, 00H ; `string'
CONST	ENDS
;	COMDAT ??_C@_1EA@JHMKKLFC@?$AAn?$AAI?$AAn?$AAd?$AAe?$AAx?$AA?5?$AA?$DO?$AA?$DN?$AA?5?$AA0?$AA?5?$AA?$CG?$AA?$CG?$AA?5@
CONST	SEGMENT
??_C@_1EA@JHMKKLFC@?$AAn?$AAI?$AAn?$AAd?$AAe?$AAx?$AA?5?$AA?$DO?$AA?$DN?$AA?5?$AA0?$AA?5?$AA?$CG?$AA?$CG?$AA?5@ DB 'n'
	DB	00H, 'I', 00H, 'n', 00H, 'd', 00H, 'e', 00H, 'x', 00H, ' ', 00H
	DB	'>', 00H, '=', 00H, ' ', 00H, '0', 00H, ' ', 00H, '&', 00H, '&'
	DB	00H, ' ', 00H, 'n', 00H, 'I', 00H, 'n', 00H, 'd', 00H, 'e', 00H
	DB	'x', 00H, ' ', 00H, '<', 00H, ' ', 00H, 'm', 00H, '_', 00H, 'n'
	DB	00H, 'S', 00H, 'i', 00H, 'z', 00H, 'e', 00H, 00H, 00H ; `string'
CONST	ENDS
;	COMDAT ??_C@_19JHCPJMAL@?$AAp?$AA?$CB?$AA?$DN?$AA0@
CONST	SEGMENT
??_C@_19JHCPJMAL@?$AAp?$AA?$CB?$AA?$DN?$AA0@ DB 'p', 00H, '!', 00H, '=', 00H
	DB	'0', 00H, 00H, 00H				; `string'
CONST	ENDS
;	COMDAT ??_C@_19LMDLLIGP@?$AAp?$AA?$DN?$AA?$DN?$AA0@
CONST	SEGMENT
??_C@_19LMDLLIGP@?$AAp?$AA?$DN?$AA?$DN?$AA0@ DB 'p', 00H, '=', 00H, '=', 00H
	DB	'0', 00H, 00H, 00H				; `string'
CONST	ENDS
;	COMDAT ??_C@_1EA@LEKOKFNB@?$AA?$CC?$AAv?$AAe?$AAc?$AAt?$AAo?$AAr?$AA?5?$AAs?$AAu?$AAb?$AAs?$AAc?$AAr?$AAi@
CONST	SEGMENT
??_C@_1EA@LEKOKFNB@?$AA?$CC?$AAv?$AAe?$AAc?$AAt?$AAo?$AAr?$AA?5?$AAs?$AAu?$AAb?$AAs?$AAc?$AAr?$AAi@ DB '"'
	DB	00H, 'v', 00H, 'e', 00H, 'c', 00H, 't', 00H, 'o', 00H, 'r', 00H
	DB	' ', 00H, 's', 00H, 'u', 00H, 'b', 00H, 's', 00H, 'c', 00H, 'r'
	DB	00H, 'i', 00H, 'p', 00H, 't', 00H, ' ', 00H, 'o', 00H, 'u', 00H
	DB	't', 00H, ' ', 00H, 'o', 00H, 'f', 00H, ' ', 00H, 'r', 00H, 'a'
	DB	00H, 'n', 00H, 'g', 00H, 'e', 00H, '"', 00H, 00H, 00H ; `string'
CONST	ENDS
;	COMDAT ??_C@_1MK@FKANIDJF@?$AAs?$AAt?$AAd?$AA?3?$AA?3?$AAv?$AAe?$AAc?$AAt?$AAo?$AAr?$AA?$DM?$AAs?$AAt?$AAr@
CONST	SEGMENT
??_C@_1MK@FKANIDJF@?$AAs?$AAt?$AAd?$AA?3?$AA?3?$AAv?$AAe?$AAc?$AAt?$AAo?$AAr?$AA?$DM?$AAs?$AAt?$AAr@ DB 's'
	DB	00H, 't', 00H, 'd', 00H, ':', 00H, ':', 00H, 'v', 00H, 'e', 00H
	DB	'c', 00H, 't', 00H, 'o', 00H, 'r', 00H, '<', 00H, 's', 00H, 't'
	DB	00H, 'r', 00H, 'u', 00H, 'c', 00H, 't', 00H, ' ', 00H, 'D', 00H
	DB	'2', 00H, 'D', 00H, '1', 00H, '_', 00H, 'G', 00H, 'R', 00H, 'A'
	DB	00H, 'D', 00H, 'I', 00H, 'E', 00H, 'N', 00H, 'T', 00H, '_', 00H
	DB	'S', 00H, 'T', 00H, 'O', 00H, 'P', 00H, ',', 00H, 'c', 00H, 'l'
	DB	00H, 'a', 00H, 's', 00H, 's', 00H, ' ', 00H, 's', 00H, 't', 00H
	DB	'd', 00H, ':', 00H, ':', 00H, 'a', 00H, 'l', 00H, 'l', 00H, 'o'
	DB	00H, 'c', 00H, 'a', 00H, 't', 00H, 'o', 00H, 'r', 00H, '<', 00H
	DB	's', 00H, 't', 00H, 'r', 00H, 'u', 00H, 'c', 00H, 't', 00H, ' '
	DB	00H, 'D', 00H, '2', 00H, 'D', 00H, '1', 00H, '_', 00H, 'G', 00H
	DB	'R', 00H, 'A', 00H, 'D', 00H, 'I', 00H, 'E', 00H, 'N', 00H, 'T'
	DB	00H, '_', 00H, 'S', 00H, 'T', 00H, 'O', 00H, 'P', 00H, '>', 00H
	DB	' ', 00H, '>', 00H, ':', 00H, ':', 00H, 'o', 00H, 'p', 00H, 'e'
	DB	00H, 'r', 00H, 'a', 00H, 't', 00H, 'o', 00H, 'r', 00H, ' ', 00H
	DB	'[', 00H, ']', 00H, 00H, 00H			; `string'
CONST	ENDS
;	COMDAT ??_C@_1KG@CEOCEOEM@?$AAD?$AA?3?$AA?2?$AAM?$AAi?$AAc?$AAr?$AAo?$AAs?$AAo?$AAf?$AAt?$AA?5?$AAV?$AAi@
CONST	SEGMENT
??_C@_1KG@CEOCEOEM@?$AAD?$AA?3?$AA?2?$AAM?$AAi?$AAc?$AAr?$AAo?$AAs?$AAo?$AAf?$AAt?$AA?5?$AAV?$AAi@ DB 'D'
	DB	00H, ':', 00H, '\', 00H, 'M', 00H, 'i', 00H, 'c', 00H, 'r', 00H
	DB	'o', 00H, 's', 00H, 'o', 00H, 'f', 00H, 't', 00H, ' ', 00H, 'V'
	DB	00H, 'i', 00H, 's', 00H, 'u', 00H, 'a', 00H, 'l', 00H, ' ', 00H
	DB	'S', 00H, 't', 00H, 'u', 00H, 'd', 00H, 'i', 00H, 'o', 00H, '\'
	DB	00H, '2', 00H, '0', 00H, '1', 00H, '9', 00H, '\', 00H, 'C', 00H
	DB	'o', 00H, 'm', 00H, 'm', 00H, 'u', 00H, 'n', 00H, 'i', 00H, 't'
	DB	00H, 'y', 00H, '\', 00H, 'V', 00H, 'C', 00H, '\', 00H, 'T', 00H
	DB	'o', 00H, 'o', 00H, 'l', 00H, 's', 00H, '\', 00H, 'M', 00H, 'S'
	DB	00H, 'V', 00H, 'C', 00H, '\', 00H, '1', 00H, '4', 00H, '.', 00H
	DB	'2', 00H, '8', 00H, '.', 00H, '2', 00H, '9', 00H, '3', 00H, '3'
	DB	00H, '3', 00H, '\', 00H, 'i', 00H, 'n', 00H, 'c', 00H, 'l', 00H
	DB	'u', 00H, 'd', 00H, 'e', 00H, '\', 00H, 'v', 00H, 'e', 00H, 'c'
	DB	00H, 't', 00H, 'o', 00H, 'r', 00H, 00H, 00H	; `string'
CONST	ENDS
;	COMDAT ??_C@_0FD@COPLKMDI@D?3?2Microsoft?5Visual?5Studio?22019@
CONST	SEGMENT
??_C@_0FD@COPLKMDI@D?3?2Microsoft?5Visual?5Studio?22019@ DB 'D:\Microsoft'
	DB	' Visual Studio\2019\Community\VC\Tools\MSVC\14.28.29333\inclu'
	DB	'de\vector', 00H				; `string'
CONST	ENDS
;	COMDAT ??_C@_0BO@PFKOHNJC@vector?5subscript?5out?5of?5range@
CONST	SEGMENT
??_C@_0BO@PFKOHNJC@vector?5subscript?5out?5of?5range@ DB 'vector subscrip'
	DB	't out of range', 00H			; `string'
CONST	ENDS
;	COMDAT ??_C@_1CI@MADGDFGA@?$AAC?$AAo?$AAl?$AAl?$AAi?$AAs?$AAi?$AAo?$AAn?$AA?5?$AAd?$AAe?$AAt?$AAe?$AAc@
CONST	SEGMENT
??_C@_1CI@MADGDFGA@?$AAC?$AAo?$AAl?$AAl?$AAi?$AAs?$AAi?$AAo?$AAn?$AA?5?$AAd?$AAe?$AAt?$AAe?$AAc@ DB 'C'
	DB	00H, 'o', 00H, 'l', 00H, 'l', 00H, 'i', 00H, 's', 00H, 'i', 00H
	DB	'o', 00H, 'n', 00H, ' ', 00H, 'd', 00H, 'e', 00H, 't', 00H, 'e'
	DB	00H, 'c', 00H, 't', 00H, 'e', 00H, 'd', 00H, '!', 00H, 00H, 00H ; `string'
CONST	ENDS
;	COMDAT ??_C@_1GI@HJJBOMF@?$AAD?$AAe?$AAm?$AAo?$AAn?$AAs?$AAt?$AAr?$AAa?$AAc?$AAe?$AA?5?$AAr?$AAe?$AAl@
CONST	SEGMENT
??_C@_1GI@HJJBOMF@?$AAD?$AAe?$AAm?$AAo?$AAn?$AAs?$AAt?$AAr?$AAa?$AAc?$AAe?$AA?5?$AAr?$AAe?$AAl@ DB 'D'
	DB	00H, 'e', 00H, 'm', 00H, 'o', 00H, 'n', 00H, 's', 00H, 't', 00H
	DB	'r', 00H, 'a', 00H, 'c', 00H, 'e', 00H, ' ', 00H, 'r', 00H, 'e'
	DB	00H, 'l', 00H, 'a', 00H, 't', 00H, 'i', 00H, 'v', 00H, 'n', 00H
	DB	0edH, 00H, ' ', 00H, 'a', 00H, ' ', 00H, 'a', 00H, 'b', 00H, 's'
	DB	00H, 'o', 00H, 'l', 00H, 'u', 00H, 't', 00H, 'n', 00H, 0edH, 00H
	DB	' ', 00H, 'v', 00H, 'e', 00H, 'l', 00H, 'i', 00H, 'k', 00H, 'o'
	DB	00H, 's', 00H, 't', 00H, 'i', 00H, ' ', 00H, 0dH, 01H, 't', 00H
	DB	'v', 00H, 'e', 00H, 'r', 00H, 'c', 00H, 'e', 00H, 00H, 00H ; `string'
CONST	ENDS
;	COMDAT ??_C@_1BG@KBOCNCBA@?$AAD?$AA2?$AAD?$AAD?$AAe?$AAm?$AAo?$AAA?$AAp?$AAp@
CONST	SEGMENT
??_C@_1BG@KBOCNCBA@?$AAD?$AA2?$AAD?$AAD?$AAe?$AAm?$AAo?$AAA?$AAp?$AAp@ DB 'D'
	DB	00H, '2', 00H, 'D', 00H, 'D', 00H, 'e', 00H, 'm', 00H, 'o', 00H
	DB	'A', 00H, 'p', 00H, 'p', 00H, 00H, 00H	; `string'
CONST	ENDS
;	COMDAT ??_C@_1M@PBMEKDNI@?$AAC?$AAL?$AAA?$AAS?$AAS@
CONST	SEGMENT
??_C@_1M@PBMEKDNI@?$AAC?$AAL?$AAA?$AAS?$AAS@ DB 'C', 00H, 'L', 00H, 'A', 00H
	DB	'S', 00H, 'S', 00H, 00H, 00H			; `string'
CONST	ENDS
;	COMDAT ??_C@_0EB@OAIDDNB@?$AB?$AA?$PP?$PP?$AA?$AA?$AA?$AA?$AA?$AA?$AA?$AAH?$AI?$AI?$IA?$AA?$AA?$AA?$AA?$AA?$AA?$CB?$AC?z?$AA?$AA?$AA?$AA?$AA?$AA@
CONST	SEGMENT
??_C@_0EB@OAIDDNB@?$AB?$AA?$PP?$PP?$AA?$AA?$AA?$AA?$AA?$AA?$AA?$AAH?$AI?$AI?$IA?$AA?$AA?$AA?$AA?$AA?$AA?$CB?$AC?z?$AA?$AA?$AA?$AA?$AA?$AA@ DB 01H
	DB	00H, 0ffH, 0ffH, 00H, 00H, 00H, 00H, 00H, 00H, 00H, 00H, 'H', 08H
	DB	08H, 080H, 00H, 00H, 00H, 00H, 00H, 00H, '!', 02H, 0faH, 00H, 00H
	DB	00H, 00H, 00H, 00H, 00H, 08H, 00H, 090H, 01H, 00H, 01H, 'M', 00H
	DB	'S', 00H, ' ', 00H, 'S', 00H, 'h', 00H, 'e', 00H, 'l', 00H, 'l'
	DB	00H, ' ', 00H, 'D', 00H, 'l', 00H, 'g', 00H, 00H, 00H, 00H ; `string'
CONST	ENDS
;	COMDAT __GUID_b859ee5a_d838_4b5b_a2e8_1adc7d93db48
CONST	SEGMENT
__GUID_b859ee5a_d838_4b5b_a2e8_1adc7d93db48 DD 0b859ee5aH
	DW	0d838H
	DW	04b5bH
	DB	0a2H
	DB	0e8H
	DB	01aH
	DB	0dcH
	DB	07dH
	DB	093H
	DB	0dbH
	DB	048H
CONST	ENDS
;	COMDAT ??_C@_19LKCICPAE@?$AA?$CF?$AAi?$AA?$CF?$AA?$CF@
CONST	SEGMENT
??_C@_19LKCICPAE@?$AA?$CF?$AAi?$AA?$CF?$AA?$CF@ DB '%', 00H, 'i', 00H, '%'
	DB	00H, '%', 00H, 00H, 00H			; `string'
CONST	ENDS
;	COMDAT ??_C@_1M@DOOPGBLO@?$AAA?$AAL?$AAP?$AAH?$AAA@
CONST	SEGMENT
??_C@_1M@DOOPGBLO@?$AAA?$AAL?$AAP?$AAH?$AAA@ DB 'A', 00H, 'L', 00H, 'P', 00H
	DB	'H', 00H, 'A', 00H, 00H, 00H			; `string'
CONST	ENDS
;	COMDAT ??_C@_1M@FHNADEIL@?$AAL?$AAI?$AAG?$AAH?$AAT@
CONST	SEGMENT
??_C@_1M@FHNADEIL@?$AAL?$AAI?$AAG?$AAH?$AAT@ DB 'L', 00H, 'I', 00H, 'G', 00H
	DB	'H', 00H, 'T', 00H, 00H, 00H			; `string'
CONST	ENDS
;	COMDAT ??_C@_17MBBPJFIP@?$AAS?$AAA?$AAT@
CONST	SEGMENT
??_C@_17MBBPJFIP@?$AAS?$AAA?$AAT@ DB 'S', 00H, 'A', 00H, 'T', 00H, 00H, 00H ; `string'
CONST	ENDS
;	COMDAT ??_C@_17JACMMIIF@?$AAH?$AAU?$AAE@
CONST	SEGMENT
??_C@_17JACMMIIF@?$AAH?$AAU?$AAE@ DB 'H', 00H, 'U', 00H, 'E', 00H, 00H, 00H ; `string'
CONST	ENDS
;	COMDAT ??_C@_19IIBKGPN@?$AAB?$AAL?$AAU?$AAE@
CONST	SEGMENT
??_C@_19IIBKGPN@?$AAB?$AAL?$AAU?$AAE@ DB 'B', 00H, 'L', 00H, 'U', 00H, 'E'
	DB	00H, 00H, 00H				; `string'
CONST	ENDS
;	COMDAT ??_C@_1M@DIBDEJMC@?$AAG?$AAR?$AAE?$AAE?$AAN@
CONST	SEGMENT
??_C@_1M@DIBDEJMC@?$AAG?$AAR?$AAE?$AAE?$AAN@ DB 'G', 00H, 'R', 00H, 'E', 00H
	DB	'E', 00H, 'N', 00H, 00H, 00H			; `string'
CONST	ENDS
;	COMDAT ??_C@_15FPHCHCFA@?$AA?$CF?$AAi@
CONST	SEGMENT
??_C@_15FPHCHCFA@?$AA?$CF?$AAi@ DB '%', 00H, 'i', 00H, 00H, 00H ; `string'
CONST	ENDS
;	COMDAT ??_C@_17MGDNIAJI@?$AAR?$AAE?$AAD@
CONST	SEGMENT
??_C@_17MGDNIAJI@?$AAR?$AAE?$AAD@ DB 'R', 00H, 'E', 00H, 'D', 00H, 00H, 00H ; `string'
CONST	ENDS
;	COMDAT ??_C@_1O@BBGMCBMK@?$AAC?$AAA?$AAN?$AAC?$AAE?$AAL@
CONST	SEGMENT
??_C@_1O@BBGMCBMK@?$AAC?$AAA?$AAN?$AAC?$AAE?$AAL@ DB 'C', 00H, 'A', 00H, 'N'
	DB	00H, 'C', 00H, 'E', 00H, 'L', 00H, 00H, 00H	; `string'
CONST	ENDS
;	COMDAT ??_C@_15PMCGDJNJ@?$AAO?$AAK@
CONST	SEGMENT
??_C@_15PMCGDJNJ@?$AAO?$AAK@ DB 'O', 00H, 'K', 00H, 00H, 00H ; `string'
CONST	ENDS
;	COMDAT ??_C@_17KOJOHOEP@?$AAR?$AAG?$AAB@
CONST	SEGMENT
??_C@_17KOJOHOEP@?$AAR?$AAG?$AAB@ DB 'R', 00H, 'G', 00H, 'B', 00H, 00H, 00H ; `string'
CONST	ENDS
;	COMDAT ??_C@_17DLHNGEBC@?$AAH?$AAS?$AAL@
CONST	SEGMENT
??_C@_17DLHNGEBC@?$AAH?$AAS?$AAL@ DB 'H', 00H, 'S', 00H, 'L', 00H, 00H, 00H ; `string'
CONST	ENDS
;	COMDAT ??_C@_13PNBDBPLL@?$AAA@
CONST	SEGMENT
??_C@_13PNBDBPLL@?$AAA@ DB 'A', 00H, 00H, 00H		; `string'
CONST	ENDS
;	COMDAT ??_C@_13LPLPOHMK@?$AAR@
CONST	SEGMENT
??_C@_13LPLPOHMK@?$AAR@ DB 'R', 00H, 00H, 00H		; `string'
CONST	ENDS
;	COMDAT ??_C@_13IABLFADB@?$AAH@
CONST	SEGMENT
??_C@_13IABLFADB@?$AAH@ DB 'H', 00H, 00H, 00H		; `string'
CONST	ENDS
;	COMDAT ??_C@_13PHJMHGG@?$AAL@
CONST	SEGMENT
??_C@_13PHJMHGG@?$AAL@ DB 'L', 00H, 00H, 00H		; `string'
CONST	ENDS
;	COMDAT ??_C@_13NIHIEAGH@?$AAG@
CONST	SEGMENT
??_C@_13NIHIEAGH@?$AAG@ DB 'G', 00H, 00H, 00H		; `string'
CONST	ENDS
;	COMDAT ??_C@_19LELMJPKF@?$AAe?$AAd?$AAi?$AAt@
CONST	SEGMENT
??_C@_19LELMJPKF@?$AAe?$AAd?$AAi?$AAt@ DB 'e', 00H, 'd', 00H, 'i', 00H, 't'
	DB	00H, 00H, 00H				; `string'
CONST	ENDS
;	COMDAT ??_C@_1IG@OPJAFKJH@?$AAE?$AAR?$AAR?$AAO?$AAR?$AA?5?$AA?3?$AA?5?$AAU?$AAn?$AAa?$AAb?$AAl?$AAe?$AA?5@
CONST	SEGMENT
??_C@_1IG@OPJAFKJH@?$AAE?$AAR?$AAR?$AAO?$AAR?$AA?5?$AA?3?$AA?5?$AAU?$AAn?$AAa?$AAb?$AAl?$AAe?$AA?5@ DB 'E'
	DB	00H, 'R', 00H, 'R', 00H, 'O', 00H, 'R', 00H, ' ', 00H, ':', 00H
	DB	' ', 00H, 'U', 00H, 'n', 00H, 'a', 00H, 'b', 00H, 'l', 00H, 'e'
	DB	00H, ' ', 00H, 't', 00H, 'o', 00H, ' ', 00H, 'i', 00H, 'n', 00H
	DB	'i', 00H, 't', 00H, 'i', 00H, 'a', 00H, 'l', 00H, 'i', 00H, 'z'
	DB	00H, 'e', 00H, ' ', 00H, 'c', 00H, 'r', 00H, 'i', 00H, 't', 00H
	DB	'i', 00H, 'c', 00H, 'a', 00H, 'l', 00H, ' ', 00H, 's', 00H, 'e'
	DB	00H, 'c', 00H, 't', 00H, 'i', 00H, 'o', 00H, 'n', 00H, ' ', 00H
	DB	'i', 00H, 'n', 00H, ' ', 00H, 'A', 00H, 't', 00H, 'l', 00H, 'W'
	DB	00H, 'i', 00H, 'n', 00H, 'M', 00H, 'o', 00H, 'd', 00H, 'u', 00H
	DB	'l', 00H, 'e', 00H, 'I', 00H, 'n', 00H, 'i', 00H, 't', 00H, 0aH
	DB	00H, 00H, 00H				; `string'
CONST	ENDS
;	COMDAT ?__LINE__Var@?0??AtlWinModuleInit@ATL@@YGJPAU_ATL_WIN_MODULE70@2@@Z@4JA
_DATA	SEGMENT
?__LINE__Var@?0??AtlWinModuleInit@ATL@@YGJPAU_ATL_WIN_MODULE70@2@@Z@4JA DD 020ccH ; `ATL::AtlWinModuleInit'::`1'::__LINE__Var
_DATA	ENDS
;	COMDAT ??_C@_11LOCGONAA@@
CONST	SEGMENT
??_C@_11LOCGONAA@@ DB 00H, 00H				; `string'
CONST	ENDS
;	COMDAT ??_C@_1IA@KEEOONGN@?$AAE?$AAR?$AAR?$AAO?$AAR?$AA?5?$AA?3?$AA?5?$AAU?$AAn?$AAa?$AAb?$AAl?$AAe?$AA?5@
CONST	SEGMENT
??_C@_1IA@KEEOONGN@?$AAE?$AAR?$AAR?$AAO?$AAR?$AA?5?$AA?3?$AA?5?$AAU?$AAn?$AAa?$AAb?$AAl?$AAe?$AA?5@ DB 'E'
	DB	00H, 'R', 00H, 'R', 00H, 'O', 00H, 'R', 00H, ' ', 00H, ':', 00H
	DB	' ', 00H, 'U', 00H, 'n', 00H, 'a', 00H, 'b', 00H, 'l', 00H, 'e'
	DB	00H, ' ', 00H, 't', 00H, 'o', 00H, ' ', 00H, 'i', 00H, 'n', 00H
	DB	'i', 00H, 't', 00H, 'i', 00H, 'a', 00H, 'l', 00H, 'i', 00H, 'z'
	DB	00H, 'e', 00H, ' ', 00H, 'c', 00H, 'r', 00H, 'i', 00H, 't', 00H
	DB	'i', 00H, 'c', 00H, 'a', 00H, 'l', 00H, ' ', 00H, 's', 00H, 'e'
	DB	00H, 'c', 00H, 't', 00H, 'i', 00H, 'o', 00H, 'n', 00H, ' ', 00H
	DB	'i', 00H, 'n', 00H, ' ', 00H, 'C', 00H, 'A', 00H, 't', 00H, 'l'
	DB	00H, 'C', 00H, 'o', 00H, 'm', 00H, 'M', 00H, 'o', 00H, 'd', 00H
	DB	'u', 00H, 'l', 00H, 'e', 00H, 0aH, 00H, 00H, 00H ; `string'
CONST	ENDS
;	COMDAT ??_C@_0FN@LAAFIOOO@D?3?2Microsoft?5Visual?5Studio?22019@
CONST	SEGMENT
??_C@_0FN@LAAFIOOO@D?3?2Microsoft?5Visual?5Studio?22019@ DB 'D:\Microsoft'
	DB	' Visual Studio\2019\Community\VC\Tools\MSVC\14.28.29333\atlmf'
	DB	'c\include\atlbase.h', 00H			; `string'
CONST	ENDS
;	COMDAT ??_C@_1LK@HHCFJJEI@?$AAD?$AA?3?$AA?2?$AAM?$AAi?$AAc?$AAr?$AAo?$AAs?$AAo?$AAf?$AAt?$AA?5?$AAV?$AAi@
CONST	SEGMENT
??_C@_1LK@HHCFJJEI@?$AAD?$AA?3?$AA?2?$AAM?$AAi?$AAc?$AAr?$AAo?$AAs?$AAo?$AAf?$AAt?$AA?5?$AAV?$AAi@ DB 'D'
	DB	00H, ':', 00H, '\', 00H, 'M', 00H, 'i', 00H, 'c', 00H, 'r', 00H
	DB	'o', 00H, 's', 00H, 'o', 00H, 'f', 00H, 't', 00H, ' ', 00H, 'V'
	DB	00H, 'i', 00H, 's', 00H, 'u', 00H, 'a', 00H, 'l', 00H, ' ', 00H
	DB	'S', 00H, 't', 00H, 'u', 00H, 'd', 00H, 'i', 00H, 'o', 00H, '\'
	DB	00H, '2', 00H, '0', 00H, '1', 00H, '9', 00H, '\', 00H, 'C', 00H
	DB	'o', 00H, 'm', 00H, 'm', 00H, 'u', 00H, 'n', 00H, 'i', 00H, 't'
	DB	00H, 'y', 00H, '\', 00H, 'V', 00H, 'C', 00H, '\', 00H, 'T', 00H
	DB	'o', 00H, 'o', 00H, 'l', 00H, 's', 00H, '\', 00H, 'M', 00H, 'S'
	DB	00H, 'V', 00H, 'C', 00H, '\', 00H, '1', 00H, '4', 00H, '.', 00H
	DB	'2', 00H, '8', 00H, '.', 00H, '2', 00H, '9', 00H, '3', 00H, '3'
	DB	00H, '3', 00H, '\', 00H, 'a', 00H, 't', 00H, 'l', 00H, 'm', 00H
	DB	'f', 00H, 'c', 00H, '\', 00H, 'i', 00H, 'n', 00H, 'c', 00H, 'l'
	DB	00H, 'u', 00H, 'd', 00H, 'e', 00H, '\', 00H, 'a', 00H, 't', 00H
	DB	'l', 00H, 'b', 00H, 'a', 00H, 's', 00H, 'e', 00H, '.', 00H, 'h'
	DB	00H, 00H, 00H				; `string'
CONST	ENDS
;	COMDAT ??_C@_1LO@JCOFCHDK@?$AAD?$AA?3?$AA?2?$AAM?$AAi?$AAc?$AAr?$AAo?$AAs?$AAo?$AAf?$AAt?$AA?5?$AAV?$AAi@
CONST	SEGMENT
??_C@_1LO@JCOFCHDK@?$AAD?$AA?3?$AA?2?$AAM?$AAi?$AAc?$AAr?$AAo?$AAs?$AAo?$AAf?$AAt?$AA?5?$AAV?$AAi@ DB 'D'
	DB	00H, ':', 00H, '\', 00H, 'M', 00H, 'i', 00H, 'c', 00H, 'r', 00H
	DB	'o', 00H, 's', 00H, 'o', 00H, 'f', 00H, 't', 00H, ' ', 00H, 'V'
	DB	00H, 'i', 00H, 's', 00H, 'u', 00H, 'a', 00H, 'l', 00H, ' ', 00H
	DB	'S', 00H, 't', 00H, 'u', 00H, 'd', 00H, 'i', 00H, 'o', 00H, '\'
	DB	00H, '2', 00H, '0', 00H, '1', 00H, '9', 00H, '\', 00H, 'C', 00H
	DB	'o', 00H, 'm', 00H, 'm', 00H, 'u', 00H, 'n', 00H, 'i', 00H, 't'
	DB	00H, 'y', 00H, '\', 00H, 'V', 00H, 'C', 00H, '\', 00H, 'T', 00H
	DB	'o', 00H, 'o', 00H, 'l', 00H, 's', 00H, '\', 00H, 'M', 00H, 'S'
	DB	00H, 'V', 00H, 'C', 00H, '\', 00H, '1', 00H, '4', 00H, '.', 00H
	DB	'2', 00H, '8', 00H, '.', 00H, '2', 00H, '9', 00H, '3', 00H, '3'
	DB	00H, '3', 00H, '\', 00H, 'a', 00H, 't', 00H, 'l', 00H, 'm', 00H
	DB	'f', 00H, 'c', 00H, '\', 00H, 'i', 00H, 'n', 00H, 'c', 00H, 'l'
	DB	00H, 'u', 00H, 'd', 00H, 'e', 00H, '\', 00H, 'a', 00H, 't', 00H
	DB	'l', 00H, 'c', 00H, 'o', 00H, 'm', 00H, 'c', 00H, 'l', 00H, 'i'
	DB	00H, '.', 00H, 'h', 00H, 00H, 00H		; `string'
CONST	ENDS
;	COMDAT ??_C@_1LM@KAEPDMAH@?$AAD?$AA?3?$AA?2?$AAM?$AAi?$AAc?$AAr?$AAo?$AAs?$AAo?$AAf?$AAt?$AA?5?$AAV?$AAi@
CONST	SEGMENT
??_C@_1LM@KAEPDMAH@?$AAD?$AA?3?$AA?2?$AAM?$AAi?$AAc?$AAr?$AAo?$AAs?$AAo?$AAf?$AAt?$AA?5?$AAV?$AAi@ DB 'D'
	DB	00H, ':', 00H, '\', 00H, 'M', 00H, 'i', 00H, 'c', 00H, 'r', 00H
	DB	'o', 00H, 's', 00H, 'o', 00H, 'f', 00H, 't', 00H, ' ', 00H, 'V'
	DB	00H, 'i', 00H, 's', 00H, 'u', 00H, 'a', 00H, 'l', 00H, ' ', 00H
	DB	'S', 00H, 't', 00H, 'u', 00H, 'd', 00H, 'i', 00H, 'o', 00H, '\'
	DB	00H, '2', 00H, '0', 00H, '1', 00H, '9', 00H, '\', 00H, 'C', 00H
	DB	'o', 00H, 'm', 00H, 'm', 00H, 'u', 00H, 'n', 00H, 'i', 00H, 't'
	DB	00H, 'y', 00H, '\', 00H, 'V', 00H, 'C', 00H, '\', 00H, 'T', 00H
